08000000	00		undefined	?? 00h 
08000001	00		undefined	?? 00h 
08000002	05		undefined	?? 05h 
08000003	20		undefined	?? 20h      
08000004	F5 09 00 08		undefined *	addr 080009f5 ; REFS: DATA->080009f5
08000008	0D 09 00 08		undefined *	addr 0800090d ; REFS: DATA->0800090d
0800000c	15 09 00 08		undefined *	addr 08000915 ; REFS: DATA->08000915
08000010	1D 09 00 08		undefined *	addr 0800091d ; REFS: DATA->0800091d
08000014	25 09 00 08		undefined *	addr 08000925 ; REFS: DATA->08000925
08000018	2D 09 00 08		undefined *	addr 0800092d ; REFS: DATA->0800092d
0800001c	00		undefined	?? 00h 
0800001d	00		undefined	?? 00h 
0800001e	00		undefined	?? 00h 
0800001f	00		undefined	?? 00h 
08000020	00		undefined	?? 00h 
08000021	00		undefined	?? 00h 
08000022	00		undefined	?? 00h 
08000023	00		undefined	?? 00h 
08000024	00		undefined	?? 00h 
08000025	00		undefined	?? 00h 
08000026	00		undefined	?? 00h 
08000027	00		undefined	?? 00h 
08000028	00		undefined	?? 00h 
08000029	00		undefined	?? 00h 
0800002a	00		undefined	?? 00h 
0800002b	00		undefined	?? 00h 
0800002c	35 09 00 08		undefined *	addr 08000935 ; REFS: DATA->08000935
08000030	43 09 00 08		undefined *	addr 08000943 ; REFS: DATA->08000943
08000034	00		undefined	?? 00h 
08000035	00		undefined	?? 00h 
08000036	00		undefined	?? 00h 
08000037	00		undefined	?? 00h 
08000038	51 09 00 08		undefined *	addr 08000951 ; REFS: DATA->08000951
0800003c	5F 09 00 08		undefined *	addr 0800095f ; REFS: DATA->0800095f
08000040	45 0A 00 08		undefined *	addr 08000a45 ; REFS: DATA->08000a45
08000044	45 0A 00 08		undefined *	addr 08000a45 ; REFS: DATA->08000a45
08000048	45 0A 00 08		undefined *	addr 08000a45 ; REFS: DATA->08000a45
0800004c	45 0A 00 08		undefined *	addr 08000a45 ; REFS: DATA->08000a45
08000050	45 0A 00 08		undefined *	addr 08000a45 ; REFS: DATA->08000a45
08000054	45 0A 00 08		undefined *	addr 08000a45 ; REFS: DATA->08000a45
08000058	45 0A 00 08		undefined *	addr 08000a45 ; REFS: DATA->08000a45
0800005c	45 0A 00 08		undefined *	addr 08000a45 ; REFS: DATA->08000a45
08000060	45 0A 00 08		undefined *	addr 08000a45 ; REFS: DATA->08000a45
08000064	45 0A 00 08		undefined *	addr 08000a45 ; REFS: DATA->08000a45
08000068	45 0A 00 08		undefined *	addr 08000a45 ; REFS: DATA->08000a45
0800006c	45 0A 00 08		undefined *	addr 08000a45 ; REFS: DATA->08000a45
08000070	45 0A 00 08		undefined *	addr 08000a45 ; REFS: DATA->08000a45
08000074	45 0A 00 08		undefined *	addr 08000a45 ; REFS: DATA->08000a45
08000078	45 0A 00 08		undefined *	addr 08000a45 ; REFS: DATA->08000a45
0800007c	45 0A 00 08		undefined *	addr 08000a45 ; REFS: DATA->08000a45
08000080	45 0A 00 08		undefined *	addr 08000a45 ; REFS: DATA->08000a45
08000084	45 0A 00 08		undefined *	addr 08000a45 ; REFS: DATA->08000a45
08000088	45 0A 00 08		undefined *	addr 08000a45 ; REFS: DATA->08000a45
0800008c	45 0A 00 08		undefined *	addr 08000a45 ; REFS: DATA->08000a45
08000090	45 0A 00 08		undefined *	addr 08000a45 ; REFS: DATA->08000a45
08000094	45 0A 00 08		undefined *	addr 08000a45 ; REFS: DATA->08000a45
08000098	45 0A 00 08		undefined *	addr 08000a45 ; REFS: DATA->08000a45
0800009c	45 0A 00 08		undefined *	addr 08000a45 ; REFS: DATA->08000a45
080000a0	45 0A 00 08		undefined *	addr 08000a45 ; REFS: DATA->08000a45
080000a4	45 0A 00 08		undefined *	addr 08000a45 ; REFS: DATA->08000a45
080000a8	45 0A 00 08		undefined *	addr 08000a45 ; REFS: DATA->08000a45
080000ac	45 0A 00 08		undefined *	addr 08000a45 ; REFS: DATA->08000a45
080000b0	45 0A 00 08		undefined *	addr 08000a45 ; REFS: DATA->08000a45
080000b4	45 0A 00 08		undefined *	addr 08000a45 ; REFS: DATA->08000a45
080000b8	45 0A 00 08		undefined *	addr 08000a45 ; REFS: DATA->08000a45
080000bc	45 0A 00 08		undefined *	addr 08000a45 ; REFS: DATA->08000a45
080000c0	45 0A 00 08		undefined *	addr 08000a45 ; REFS: DATA->08000a45
080000c4	45 0A 00 08		undefined *	addr 08000a45 ; REFS: DATA->08000a45
080000c8	45 0A 00 08		undefined *	addr 08000a45 ; REFS: DATA->08000a45
080000cc	45 0A 00 08		undefined *	addr 08000a45 ; REFS: DATA->08000a45
080000d0	45 0A 00 08		undefined *	addr 08000a45 ; REFS: DATA->08000a45
080000d4	45 0A 00 08		undefined *	addr 08000a45 ; REFS: DATA->08000a45
080000d8	45 0A 00 08		undefined *	addr 08000a45 ; REFS: DATA->08000a45
080000dc	45 0A 00 08		undefined *	addr 08000a45 ; REFS: DATA->08000a45
080000e0	45 0A 00 08		undefined *	addr 08000a45 ; REFS: DATA->08000a45
080000e4	45 0A 00 08		undefined *	addr 08000a45 ; REFS: DATA->08000a45
080000e8	45 0A 00 08		undefined *	addr 08000a45 ; REFS: DATA->08000a45
080000ec	45 0A 00 08		undefined *	addr 08000a45 ; REFS: DATA->08000a45
080000f0	45 0A 00 08		undefined *	addr 08000a45 ; REFS: DATA->08000a45
080000f4	45 0A 00 08		undefined *	addr 08000a45 ; REFS: DATA->08000a45
080000f8	45 0A 00 08		undefined *	addr 08000a45 ; REFS: DATA->08000a45
080000fc	45 0A 00 08		undefined *	addr 08000a45 ; REFS: DATA->08000a45
08000100	45 0A 00 08		undefined *	addr 08000a45 ; REFS: DATA->08000a45
08000104	45 0A 00 08		undefined *	addr 08000a45 ; REFS: DATA->08000a45
08000108	45 0A 00 08		undefined *	addr 08000a45 ; REFS: DATA->08000a45
0800010c	45 0A 00 08		undefined *	addr 08000a45 ; REFS: DATA->08000a45
08000110	6D 09 00 08		undefined *	addr 0800096d ; REFS: DATA->0800096d
08000114	45 0A 00 08		undefined *	addr 08000a45 ; REFS: DATA->08000a45
08000118	45 0A 00 08		undefined *	addr 08000a45 ; REFS: DATA->08000a45
0800011c	45 0A 00 08		undefined *	addr 08000a45 ; REFS: DATA->08000a45
08000120	45 0A 00 08		undefined *	addr 08000a45 ; REFS: DATA->08000a45
08000124	45 0A 00 08		undefined *	addr 08000a45 ; REFS: DATA->08000a45
08000128	45 0A 00 08		undefined *	addr 08000a45 ; REFS: DATA->08000a45
0800012c	45 0A 00 08		undefined *	addr 08000a45 ; REFS: DATA->08000a45
08000130	45 0A 00 08		undefined *	addr 08000a45 ; REFS: DATA->08000a45
08000134	45 0A 00 08		undefined *	addr 08000a45 ; REFS: DATA->08000a45
08000138	45 0A 00 08		undefined *	addr 08000a45 ; REFS: DATA->08000a45
0800013c	45 0A 00 08		undefined *	addr 08000a45 ; REFS: DATA->08000a45
08000140	45 0A 00 08		undefined *	addr 08000a45 ; REFS: DATA->08000a45
08000144	45 0A 00 08		undefined *	addr 08000a45 ; REFS: DATA->08000a45
08000148	45 0A 00 08		undefined *	addr 08000a45 ; REFS: DATA->08000a45
0800014c	45 0A 00 08		undefined *	addr 08000a45 ; REFS: DATA->08000a45
08000150	45 0A 00 08		undefined *	addr 08000a45 ; REFS: DATA->08000a45
08000154	45 0A 00 08		undefined *	addr 08000a45 ; REFS: DATA->08000a45
08000158	45 0A 00 08		undefined *	addr 08000a45 ; REFS: DATA->08000a45
0800015c	45 0A 00 08		undefined *	addr 08000a45 ; REFS: DATA->08000a45
08000160	45 0A 00 08		undefined *	addr 08000a45 ; REFS: DATA->08000a45
08000164	45 0A 00 08		undefined *	addr 08000a45 ; REFS: DATA->08000a45
08000168	45 0A 00 08		undefined *	addr 08000a45 ; REFS: DATA->08000a45
0800016c	45 0A 00 08		undefined *	addr 08000a45 ; REFS: DATA->08000a45
08000170	45 0A 00 08		undefined *	addr 08000a45 ; REFS: DATA->08000a45
08000174	45 0A 00 08		undefined *	addr 08000a45 ; REFS: DATA->08000a45
08000178	00		undefined	?? 00h 
08000179	00		undefined	?? 00h 
0800017a	00		undefined	?? 00h 
0800017b	00		undefined	?? 00h 
0800017c	45 0A 00 08		undefined *	addr 08000a45 ; REFS: DATA->08000a45
08000180	45 0A 00 08		undefined *	addr 08000a45 ; REFS: DATA->08000a45
08000184	45 0A 00 08		undefined *	addr 08000a45 ; REFS: DATA->08000a45
08000188	45 0A 00 08		undefined *	addr 08000a45 ; REFS: DATA->08000a45
0800018c	45 0A 00 08		undefined *	addr 08000a45 ; REFS: DATA->08000a45
08000190	45 0A 00 08		undefined *	addr 08000a45 ; REFS: DATA->08000a45
08000194	45 0A 00 08		undefined *	addr 08000a45 ; REFS: DATA->08000a45
08000198	00		undefined	?? 00h 
08000199	00		undefined	?? 00h 
0800019a	00		undefined	?? 00h 
0800019b	00		undefined	?? 00h 
0800019c	45 0A 00 08		undefined *	addr 08000a45 ; REFS: DATA->08000a45
080001a0	45 0A 00 08		undefined *	addr 08000a45 ; REFS: DATA->08000a45
080001a4	45 0A 00 08		undefined *	addr 08000a45 ; REFS: DATA->08000a45
080001a8	00		undefined	?? 00h 
080001a9	00		undefined	?? 00h 
080001aa	00		undefined	?? 00h 
080001ab	00		undefined	?? 00h 
080001ac	00		undefined	?? 00h 
080001ad	00		undefined	?? 00h 
080001ae	00		undefined	?? 00h 
080001af	00		undefined	?? 00h 
080001b0	45		undefined	?? 45h    E 
080001b1	0A		undefined	?? 0Ah 
080001b2	00		undefined	?? 00h 
080001b3	08		undefined	?? 08h 
080001b4	00		undefined	?? 00h 
080001b5	00		undefined	?? 00h 
080001b6	00		undefined	?? 00h 
080001b7	00		undefined	?? 00h 
080001b8	00		undefined	?? 00h 
080001b9	00		undefined	?? 00h 
080001ba	00		undefined	?? 00h 
080001bb	00		undefined	?? 00h 
080001bc	45 0A 00 08		undefined *	addr 08000a45 ; REFS: DATA->08000a45
080001c0	45 0A 00 08		undefined *	addr 08000a45 ; REFS: DATA->08000a45
080001c4	45 0A 00 08		undefined *	addr 08000a45 ; REFS: DATA->08000a45
080001c8	45 0A 00 08		undefined *	addr 08000a45 ; REFS: DATA->08000a45
080001cc	45 0A 00 08		undefined *	addr 08000a45 ; REFS: DATA->08000a45
080001d0	45 0A 00 08		undefined *	addr 08000a45 ; REFS: DATA->08000a45
080001d4	45 0A 00 08		undefined *	addr 08000a45 ; REFS: DATA->08000a45
080001d8	10 B5	FUN_080001d8		push {r4,lr} 
080001da	05 4C			ldr r4,[0x080001f0] ; REFS: READ->080001f0
080001dc	23 78			ldrb r3,[r4,#0x0] ; REFS: READ->2000000c
080001de	33 B9			cbnz r3,0x080001ee ; REFS: CONDITIONAL_JUMP->080001ee
080001e0	04 4B			ldr r3,[0x080001f4] ; REFS: READ->080001f4
080001e2	13 B1			cbz r3,0x080001ea ; REFS: CONDITIONAL_JUMP->080001ea
080001e4	04 48			ldr r0,[0x080001f8] ; REFS: READ->080001f8, DATA->080015d0
080001e6	AF F3 00 80			nop.w 
080001ea	01 23			movs r3,#0x1 
080001ec	23 70			strb r3,[r4,#0x0] ; REFS: WRITE->2000000c
080001ee	10 BD			pop {r4,pc} 
080001f0	0C 00 00 20		undefined4	undefined4 2000000Ch 
080001f4	00 00 00 00		undefined4	undefined4 00000000h 
080001f8	D0 15 00 08		undefined4	undefined4 080015D0h 
080001fc	08 B5	FUN_080001fc		push {r3,lr} 
080001fe	03 4B			ldr r3,[0x0800020c] ; REFS: READ->0800020c
08000200	1B B1			cbz r3,0x0800020a ; REFS: CONDITIONAL_JUMP->0800020a
08000202	03 49			ldr r1,[0x08000210] ; REFS: READ->08000210
08000204	03 48			ldr r0,[0x08000214] ; REFS: READ->08000214, DATA->080015d0
08000206	AF F3 00 80			nop.w 
0800020a	08 BD			pop {r3,pc} 
0800020c	00 00 00 00		undefined4	undefined4 00000000h 
08000210	10 00 00 20		undefined4	undefined4 20000010h 
08000214	D0 15 00 08		undefined4	undefined4 080015D0h 
08000218	53 B9	FUN_08000218		cbnz r3,0x08000230 ; REFS: CONDITIONAL_JUMP->08000230
0800021a	4A B9			cbnz r2,0x08000230 ; REFS: CONDITIONAL_JUMP->08000230
0800021c	00 29			cmp r1,#0x0 
0800021e	08 BF			it eq 
08000220	00 28			cmp.eq r0,#0x0 
08000222	1C BF			itt ne 
08000224	4F F0 FF 31			mov.ne.w r1,#0xffffffff 
08000228	4F F0 FF 30			mov.ne.w r0,#0xffffffff 
0800022c	00 F0 88 B9			b.w 0x08000540 ; REFS: UNCONDITIONAL_JUMP->08000540
08000230	AD F1 08 0C			sub.w r12,sp,#0x8 
08000234	6D E9 04 CE			strd r12,lr,[sp,#-0x10]! ; REFS: WRITE->Stack[-0x10]
08000238	00 F0 06 F8			bl 0x08000248 ; REFS: UNCONDITIONAL_CALL->08000248
0800023c	DD F8 04 E0			ldr.w lr,[sp,#0x4] ; REFS: READ->Stack[-0xc]
08000240	DD E9 02 23			ldrd r2,r3,[sp,#0x8] ; REFS: READ->Stack[-0x8]
08000244	04 B0			add sp,#0x10 
08000246	70 47			bx lr 
08000248	2D E9 F0 47	FUN_08000248		push {r4,r5,r6,r7,r8,r9,r10,lr} 
0800024c	08 9D			ldr r5,[sp,#0x20] ; REFS: READ->Stack[0x0]
0800024e	8E 46			mov lr,r1 
08000250	04 46			mov r4,r0 
08000252	88 46			mov r8,r1 
08000254	00 2B			cmp r3,#0x0 
08000256	4A D1			bne 0x080002ee ; REFS: CONDITIONAL_JUMP->080002ee
08000258	8A 42			cmp r2,r1 
0800025a	17 46			mov r7,r2 
0800025c	62 D9			bls 0x08000324 ; REFS: CONDITIONAL_JUMP->08000324
0800025e	B2 FA 82 F6			clz r6,r2 
08000262	4E B1			cbz r6,0x08000278 ; REFS: CONDITIONAL_JUMP->08000278
08000264	C6 F1 20 03			rsb.w r3,r6,#0x20 
08000268	01 FA 06 F8			lsl.w r8,r1,r6 
0800026c	20 FA 03 F3			lsr.w r3,r0,r3 
08000270	B7 40			lsls r7,r6 
08000272	43 EA 08 08			orr.w r8,r3,r8 
08000276	B4 40			lsls r4,r6 
08000278	4F EA 17 4E			lsr.w lr,r7,#0x10 
0800027c	1F FA 87 FC			uxth.w r12,r7 
08000280	B8 FB FE F1			udiv r1,r8,lr 
08000284	23 0C			lsrs r3,r4,#0x10 
08000286	0E FB 11 88			mls r8,lr,r1,r8 
0800028a	43 EA 08 43			orr.w r3,r3,r8, lsl #0x10 
0800028e	01 FB 0C F2			mul r2,r1,r12 
08000292	9A 42			cmp r2,r3 
08000294	09 D9			bls 0x080002aa ; REFS: CONDITIONAL_JUMP->080002aa
08000296	FB 18			adds r3,r7,r3 
08000298	01 F1 FF 30			add.w r0,r1,#0xffffffff 
0800029c	80 F0 EA 80			bcs.w 0x08000474 ; REFS: CONDITIONAL_JUMP->08000474
080002a0	9A 42			cmp r2,r3 
080002a2	40 F2 E7 80			bls.w 0x08000474 ; REFS: CONDITIONAL_JUMP->08000474
080002a6	02 39			subs r1,#0x2 
080002a8	3B 44			add r3,r7 
080002aa	9A 1A			subs r2,r3,r2 
080002ac	A3 B2			uxth r3,r4 
080002ae	B2 FB FE F0			udiv r0,r2,lr 
080002b2	0E FB 10 22			mls r2,lr,r0,r2 
080002b6	43 EA 02 43			orr.w r3,r3,r2, lsl #0x10 
080002ba	00 FB 0C FC			mul r12,r0,r12 
080002be	9C 45			cmp r12,r3 
080002c0	09 D9			bls 0x080002d6 ; REFS: CONDITIONAL_JUMP->080002d6
080002c2	FB 18			adds r3,r7,r3 
080002c4	00 F1 FF 32			add.w r2,r0,#0xffffffff 
080002c8	80 F0 D6 80			bcs.w 0x08000478 ; REFS: CONDITIONAL_JUMP->08000478
080002cc	9C 45			cmp r12,r3 
080002ce	40 F2 D3 80			bls.w 0x08000478 ; REFS: CONDITIONAL_JUMP->08000478
080002d2	3B 44			add r3,r7 
080002d4	02 38			subs r0,#0x2 
080002d6	40 EA 01 40			orr.w r0,r0,r1, lsl #0x10 
080002da	A3 EB 0C 03			sub.w r3,r3,r12 
080002de	00 21			movs r1,#0x0 
080002e0	1D B1			cbz r5,0x080002ea ; REFS: CONDITIONAL_JUMP->080002ea
080002e2	F3 40			lsrs r3,r6 
080002e4	00 22			movs r2,#0x0 
080002e6	C5 E9 00 32			strd r3,r2,[r5,#0x0] 
080002ea	BD E8 F0 87			pop.w {r4,r5,r6,r7,r8,r9,r10,pc} 
080002ee	8B 42			cmp r3,r1 
080002f0	05 D9			bls 0x080002fe ; REFS: CONDITIONAL_JUMP->080002fe
080002f2	0D B1			cbz r5,0x080002f8 ; REFS: CONDITIONAL_JUMP->080002f8
080002f4	C5 E9 00 01			strd r0,r1,[r5,#0x0] 
080002f8	00 21			movs r1,#0x0 
080002fa	08 46			mov r0,r1 
080002fc	F5 E7			b 0x080002ea ; REFS: UNCONDITIONAL_JUMP->080002ea
080002fe	B3 FA 83 F1			clz r1,r3 
08000302	00 29			cmp r1,#0x0 
08000304	46 D1			bne 0x08000394 ; REFS: CONDITIONAL_JUMP->08000394
08000306	73 45			cmp r3,lr 
08000308	02 D3			bcc 0x08000310 ; REFS: CONDITIONAL_JUMP->08000310
0800030a	82 42			cmp r2,r0 
0800030c	00 F2 05 81			bhi.w 0x0800051a ; REFS: CONDITIONAL_JUMP->0800051a
08000310	84 1A			subs r4,r0,r2 
08000312	6E EB 03 02			sbc.w r2,lr,r3 
08000316	01 20			movs r0,#0x1 
08000318	90 46			mov r8,r2 
0800031a	00 2D			cmp r5,#0x0 
0800031c	E5 D0			beq 0x080002ea ; REFS: CONDITIONAL_JUMP->080002ea
0800031e	C5 E9 00 48			strd r4,r8,[r5,#0x0] 
08000322	E2 E7			b 0x080002ea ; REFS: UNCONDITIONAL_JUMP->080002ea
08000324	00 2A			cmp r2,#0x0 
08000326	00 F0 90 80			beq.w 0x0800044a ; REFS: CONDITIONAL_JUMP->0800044a
0800032a	B2 FA 82 F6			clz r6,r2 
0800032e	00 2E			cmp r6,#0x0 
08000330	40 F0 A4 80			bne.w 0x0800047c ; REFS: CONDITIONAL_JUMP->0800047c
08000334	8A 1A			subs r2,r1,r2 
08000336	03 0C			lsrs r3,r0,#0x10 
08000338	4F EA 17 4E			lsr.w lr,r7,#0x10 
0800033c	80 B2			uxth r0,r0 
0800033e	BC B2			uxth r4,r7 
08000340	01 21			movs r1,#0x1 
08000342	B2 FB FE FC			udiv r12,r2,lr 
08000346	0E FB 1C 22			mls r2,lr,r12,r2 
0800034a	43 EA 02 43			orr.w r3,r3,r2, lsl #0x10 
0800034e	04 FB 0C F2			mul r2,r4,r12 
08000352	9A 42			cmp r2,r3 
08000354	07 D9			bls 0x08000366 ; REFS: CONDITIONAL_JUMP->08000366
08000356	FB 18			adds r3,r7,r3 
08000358	0C F1 FF 38			add.w r8,r12,#0xffffffff 
0800035c	02 D2			bcs 0x08000364 ; REFS: CONDITIONAL_JUMP->08000364
0800035e	9A 42			cmp r2,r3 
08000360	00 F2 E0 80			bhi.w 0x08000524 ; REFS: CONDITIONAL_JUMP->08000524
08000364	C4 46			mov r12,r8 
08000366	9B 1A			subs r3,r3,r2 
08000368	B3 FB FE F2			udiv r2,r3,lr 
0800036c	0E FB 12 33			mls r3,lr,r2,r3 
08000370	40 EA 03 43			orr.w r3,r0,r3, lsl #0x10 
08000374	02 FB 04 F4			mul r4,r2,r4 
08000378	9C 42			cmp r4,r3 
0800037a	07 D9			bls 0x0800038c ; REFS: CONDITIONAL_JUMP->0800038c
0800037c	FB 18			adds r3,r7,r3 
0800037e	02 F1 FF 30			add.w r0,r2,#0xffffffff 
08000382	02 D2			bcs 0x0800038a ; REFS: CONDITIONAL_JUMP->0800038a
08000384	9C 42			cmp r4,r3 
08000386	00 F2 CA 80			bhi.w 0x0800051e ; REFS: CONDITIONAL_JUMP->0800051e
0800038a	02 46			mov r2,r0 
0800038c	1B 1B			subs r3,r3,r4 
0800038e	42 EA 0C 40			orr.w r0,r2,r12, lsl #0x10 
08000392	A5 E7			b 0x080002e0 ; REFS: UNCONDITIONAL_JUMP->080002e0
08000394	C1 F1 20 06			rsb.w r6,r1,#0x20 
08000398	8B 40			lsls r3,r1 
0800039a	22 FA 06 F7			lsr.w r7,r2,r6 
0800039e	1F 43			orrs r7,r3 
080003a0	0E FA 01 F4			lsl.w r4,lr,r1 
080003a4	20 FA 06 F3			lsr.w r3,r0,r6 
080003a8	2E FA 06 FE			lsr.w lr,lr,r6 
080003ac	4F EA 17 49			lsr.w r9,r7,#0x10 
080003b0	23 43			orrs r3,r4 
080003b2	00 FA 01 F8			lsl.w r8,r0,r1 
080003b6	1F FA 87 FC			uxth.w r12,r7 
080003ba	BE FB F9 F0			udiv r0,lr,r9 
080003be	1C 0C			lsrs r4,r3,#0x10 
080003c0	09 FB 10 EE			mls lr,r9,r0,lr 
080003c4	44 EA 0E 44			orr.w r4,r4,lr, lsl #0x10 
080003c8	00 FB 0C FE			mul lr,r0,r12 
080003cc	A6 45			cmp lr,r4 
080003ce	02 FA 01 F2			lsl.w r2,r2,r1 
080003d2	09 D9			bls 0x080003e8 ; REFS: CONDITIONAL_JUMP->080003e8
080003d4	3C 19			adds r4,r7,r4 
080003d6	00 F1 FF 3A			add.w r10,r0,#0xffffffff 
080003da	80 F0 9C 80			bcs.w 0x08000516 ; REFS: CONDITIONAL_JUMP->08000516
080003de	A6 45			cmp lr,r4 
080003e0	40 F2 99 80			bls.w 0x08000516 ; REFS: CONDITIONAL_JUMP->08000516
080003e4	02 38			subs r0,#0x2 
080003e6	3C 44			add r4,r7 
080003e8	A4 EB 0E 04			sub.w r4,r4,lr 
080003ec	1F FA 83 FE			uxth.w lr,r3 
080003f0	B4 FB F9 F3			udiv r3,r4,r9 
080003f4	09 FB 13 44			mls r4,r9,r3,r4 
080003f8	4E EA 04 44			orr.w r4,lr,r4, lsl #0x10 
080003fc	03 FB 0C FC			mul r12,r3,r12 
08000400	A4 45			cmp r12,r4 
08000402	08 D9			bls 0x08000416 ; REFS: CONDITIONAL_JUMP->08000416
08000404	3C 19			adds r4,r7,r4 
08000406	03 F1 FF 3E			add.w lr,r3,#0xffffffff 
0800040a	80 F0 82 80			bcs.w 0x08000512 ; REFS: CONDITIONAL_JUMP->08000512
0800040e	A4 45			cmp r12,r4 
08000410	7F D9			bls 0x08000512 ; REFS: CONDITIONAL_JUMP->08000512
08000412	02 3B			subs r3,#0x2 
08000414	3C 44			add r4,r7 
08000416	43 EA 00 40			orr.w r0,r3,r0, lsl #0x10 
0800041a	A4 EB 0C 04			sub.w r4,r4,r12 
0800041e	A0 FB 02 EC			umull lr,r12,r0,r2 
08000422	64 45			cmp r4,r12 
08000424	73 46			mov r3,lr 
08000426	E1 46			mov r9,r12 
08000428	62 D3			bcc 0x080004f0 ; REFS: CONDITIONAL_JUMP->080004f0
0800042a	5F D0			beq 0x080004ec ; REFS: CONDITIONAL_JUMP->080004ec
0800042c	5D B1			cbz r5,0x08000446 ; REFS: CONDITIONAL_JUMP->08000446
0800042e	B8 EB 03 02			subs.w r2,r8,r3 
08000432	64 EB 09 04			sbc.w r4,r4,r9 
08000436	04 FA 06 F6			lsl.w r6,r4,r6 
0800043a	22 FA 01 F3			lsr.w r3,r2,r1 
0800043e	1E 43			orrs r6,r3 
08000440	CC 40			lsrs r4,r1 
08000442	C5 E9 00 64			strd r6,r4,[r5,#0x0] 
08000446	00 21			movs r1,#0x0 
08000448	4F E7			b 0x080002ea ; REFS: UNCONDITIONAL_JUMP->080002ea
0800044a	B1 FB F2 FC			udiv r12,r1,r2 
0800044e	01 0C			lsrs r1,r0,#0x10 
08000450	41 EA 0E 41			orr.w r1,r1,lr, lsl #0x10 
08000454	80 B2			uxth r0,r0 
08000456	40 EA 01 42			orr.w r2,r0,r1, lsl #0x10 
0800045a	3B 46			mov r3,r7 
0800045c	38 46			mov r0,r7 
0800045e	3C 46			mov r4,r7 
08000460	B8 46			mov r8,r7 
08000462	BE 46			mov lr,r7 
08000464	20 26			movs r6,#0x20 
08000466	B1 FB F7 F1			udiv r1,r1,r7 
0800046a	A2 EB 08 02			sub.w r2,r2,r8 
0800046e	41 EA 0C 41			orr.w r1,r1,r12, lsl #0x10 
08000472	66 E7			b 0x08000342 ; REFS: UNCONDITIONAL_JUMP->08000342
08000474	01 46			mov r1,r0 
08000476	18 E7			b 0x080002aa ; REFS: UNCONDITIONAL_JUMP->080002aa
08000478	10 46			mov r0,r2 
0800047a	2C E7			b 0x080002d6 ; REFS: UNCONDITIONAL_JUMP->080002d6
0800047c	C6 F1 20 02			rsb.w r2,r6,#0x20 
08000480	2E FA 02 F3			lsr.w r3,lr,r2 
08000484	B7 40			lsls r7,r6 
08000486	B1 40			lsls r1,r6 
08000488	20 FA 02 F2			lsr.w r2,r0,r2 
0800048c	4F EA 17 4E			lsr.w lr,r7,#0x10 
08000490	0A 43			orrs r2,r1 
08000492	B3 FB FE F8			udiv r8,r3,lr 
08000496	BC B2			uxth r4,r7 
08000498	0E FB 18 33			mls r3,lr,r8,r3 
0800049c	11 0C			lsrs r1,r2,#0x10 
0800049e	41 EA 03 41			orr.w r1,r1,r3, lsl #0x10 
080004a2	08 FB 04 F9			mul r9,r8,r4 
080004a6	B0 40			lsls r0,r6 
080004a8	89 45			cmp r9,r1 
080004aa	4F EA 10 43			lsr.w r3,r0,#0x10 
080004ae	80 B2			uxth r0,r0 
080004b0	3E D9			bls 0x08000530 ; REFS: CONDITIONAL_JUMP->08000530
080004b2	79 18			adds r1,r7,r1 
080004b4	08 F1 FF 3C			add.w r12,r8,#0xffffffff 
080004b8	01 D2			bcs 0x080004be ; REFS: CONDITIONAL_JUMP->080004be
080004ba	89 45			cmp r9,r1 
080004bc	1F D8			bhi 0x080004fe ; REFS: CONDITIONAL_JUMP->080004fe
080004be	A1 EB 09 01			sub.w r1,r1,r9 
080004c2	B1 FB FE F9			udiv r9,r1,lr 
080004c6	09 FB 04 F8			mul r8,r9,r4 
080004ca	0E FB 19 11			mls r1,lr,r9,r1 
080004ce	92 B2			uxth r2,r2 
080004d0	42 EA 01 42			orr.w r2,r2,r1, lsl #0x10 
080004d4	42 45			cmp r2,r8 
080004d6	29 D2			bcs 0x0800052c ; REFS: CONDITIONAL_JUMP->0800052c
080004d8	BA 18			adds r2,r7,r2 
080004da	09 F1 FF 31			add.w r1,r9,#0xffffffff 
080004de	C4 D2			bcs 0x0800046a ; REFS: CONDITIONAL_JUMP->0800046a
080004e0	42 45			cmp r2,r8 
080004e2	C2 D2			bcs 0x0800046a ; REFS: CONDITIONAL_JUMP->0800046a
080004e4	A9 F1 02 01			sub.w r1,r9,#0x2 
080004e8	3A 44			add r2,r7 
080004ea	BE E7			b 0x0800046a ; REFS: UNCONDITIONAL_JUMP->0800046a
080004ec	F0 45			cmp r8,lr 
080004ee	9D D2			bcs 0x0800042c ; REFS: CONDITIONAL_JUMP->0800042c
080004f0	BE EB 02 03			subs.w r3,lr,r2 
080004f4	6C EB 07 0C			sbc.w r12,r12,r7 
080004f8	01 38			subs r0,#0x1 
080004fa	E1 46			mov r9,r12 
080004fc	96 E7			b 0x0800042c ; REFS: UNCONDITIONAL_JUMP->0800042c
080004fe	A7 EB 09 09			sub.w r9,r7,r9 
08000502	49 44			add r1,r9 
08000504	A8 F1 02 0C			sub.w r12,r8,#0x2 
08000508	B1 FB FE F9			udiv r9,r1,lr 
0800050c	09 FB 04 F8			mul r8,r9,r4 
08000510	DB E7			b 0x080004ca ; REFS: UNCONDITIONAL_JUMP->080004ca
08000512	73 46			mov r3,lr 
08000514	7F E7			b 0x08000416 ; REFS: UNCONDITIONAL_JUMP->08000416
08000516	50 46			mov r0,r10 
08000518	66 E7			b 0x080003e8 ; REFS: UNCONDITIONAL_JUMP->080003e8
0800051a	08 46			mov r0,r1 
0800051c	FD E6			b 0x0800031a ; REFS: UNCONDITIONAL_JUMP->0800031a
0800051e	3B 44			add r3,r7 
08000520	02 3A			subs r2,#0x2 
08000522	33 E7			b 0x0800038c ; REFS: UNCONDITIONAL_JUMP->0800038c
08000524	AC F1 02 0C			sub.w r12,r12,#0x2 
08000528	3B 44			add r3,r7 
0800052a	1C E7			b 0x08000366 ; REFS: UNCONDITIONAL_JUMP->08000366
0800052c	49 46			mov r1,r9 
0800052e	9C E7			b 0x0800046a ; REFS: UNCONDITIONAL_JUMP->0800046a
08000530	A1 EB 09 01			sub.w r1,r1,r9 
08000534	C4 46			mov r12,r8 
08000536	B1 FB FE F9			udiv r9,r1,lr 
0800053a	09 FB 04 F8			mul r8,r9,r4 
0800053e	C4 E7			b 0x080004ca ; REFS: UNCONDITIONAL_JUMP->080004ca
08000540	70 47			bx lr 
08000542	00		undefined	?? 00h 
08000543	BF		undefined	?? BFh 
08000544	80 B4	FUN_08000544		push {r7} 
08000546	83 B0			sub sp,#0xc 
08000548	00 AF			add r7,sp,#0x0 
0800054a	03 46			mov r3,r0 
0800054c	FB 71			strb r3,[r7,#0x7] ; REFS: WRITE->Stack[-0x9]
0800054e	97 F9 07 30			ldrsb.w r3,[r7,#0x7] ; REFS: READ->Stack[-0x9]
08000552	00 2B			cmp r3,#0x0 
08000554	0B DB			blt 0x0800056e ; REFS: CONDITIONAL_JUMP->0800056e
08000556	FB 79			ldrb r3,[r7,#0x7] ; REFS: READ->Stack[-0x9]
08000558	03 F0 1F 02			and r2,r3,#0x1f 
0800055c	07 49			ldr r1,[0x0800057c] ; REFS: READ->0800057c
0800055e	97 F9 07 30			ldrsb.w r3,[r7,#0x7] ; REFS: READ->Stack[-0x9]
08000562	5B 09			lsrs r3,r3,#0x5 
08000564	01 20			movs r0,#0x1 
08000566	00 FA 02 F2			lsl.w r2,r0,r2 
0800056a	41 F8 23 20			str.w r2,[r1,r3,lsl #0x2] 
0800056e	00 BF			nop 
08000570	0C 37			adds r7,#0xc 
08000572	BD 46			mov sp,r7 
08000574	5D F8 04 7B			pop.w r7 ; REFS: DATA->Stack[-0x4]
08000578	70 47			bx lr 
0800057a	00		undefined	?? 00h 
0800057b	BF		undefined	?? BFh 
0800057c	00 E1 00 E0		undefined4	undefined4 E000E100h 
08000580	80 B5	FUN_08000580		push {r7,lr} 
08000582	00 AF			add r7,sp,#0x0 
08000584	00 F0 60 FA			bl 0x08000a48 ; REFS: UNCONDITIONAL_CALL->08000a48
08000588	00 F0 36 F8			bl 0x080005f8 ; REFS: UNCONDITIONAL_CALL->080005f8
0800058c	00 F0 E4 F8			bl 0x08000758 ; REFS: UNCONDITIONAL_CALL->08000758
08000590	00 F0 90 F8			bl 0x080006b4 ; REFS: UNCONDITIONAL_CALL->080006b4
08000594	00 F0 9E F8			bl 0x080006d4 ; REFS: UNCONDITIONAL_CALL->080006d4
08000598	10 4B			ldr r3,[0x080005dc] ; REFS: READ->080005dc
0800059a	1B 78			ldrb r3,[r3,#0x0] ; REFS: READ->20000039
0800059c	DB B2			uxtb r3,r3 
0800059e	00 2B			cmp r3,#0x0 
080005a0	FA D0			beq 0x08000598 ; REFS: CONDITIONAL_JUMP->08000598
080005a2	0E 4B			ldr r3,[0x080005dc] ; REFS: READ->080005dc, PARAM->20000039
080005a4	00 22			movs r2,#0x0 
080005a6	1A 70			strb r2,[r3,#0x0] ; REFS: WRITE->20000039
080005a8	0D 4A			ldr r2,[0x080005e0] ; REFS: READ->080005e0, PARAM->080015e8
080005aa	0E 49			ldr r1,[0x080005e4] ; REFS: READ->080005e4
080005ac	0E 48			ldr r0,[0x080005e8] ; REFS: READ->080005e8, PARAM->080015f8
080005ae	00 F0 F1 F8			bl 0x08000794 ; REFS: UNCONDITIONAL_CALL->08000794
080005b2	10 22			movs r2,#0x10 
080005b4	0D 49			ldr r1,[0x080005ec] ; REFS: READ->080005ec
080005b6	0B 48			ldr r0,[0x080005e4] ; REFS: READ->080005e4
080005b8	00 F0 CE FF			bl 0x08001558 ; REFS: UNCONDITIONAL_CALL->08001558
080005bc	03 46			mov r3,r0 
080005be	00 2B			cmp r3,#0x0 
080005c0	03 D1			bne 0x080005ca ; REFS: CONDITIONAL_JUMP->080005ca
080005c2	0B 4B			ldr r3,[0x080005f0] ; REFS: READ->080005f0
080005c4	20 22			movs r2,#0x20 
080005c6	9A 61			str r2,[r3,#0x18] ; REFS: WRITE->40020018
080005c8	03 E0			b 0x080005d2 ; REFS: UNCONDITIONAL_JUMP->080005d2
080005ca	09 4B			ldr r3,[0x080005f0] ; REFS: READ->080005f0
080005cc	4F F4 00 12			mov.w r2,#0x200000 
080005d0	9A 61			str r2,[r3,#0x18] ; REFS: WRITE->40020018
080005d2	08 4B			ldr r3,[0x080005f4] ; REFS: READ->080005f4
080005d4	00 22			movs r2,#0x0 
080005d6	1A 70			strb r2,[r3,#0x0] ; REFS: WRITE->20000038
080005d8	DE E7			b 0x08000598 ; REFS: UNCONDITIONAL_JUMP->08000598
080005da	00		undefined	?? 00h 
080005db	BF		undefined	?? BFh 
080005dc	39 00 00 20		undefined4	undefined4 20000039h 
080005e0	E8 15 00 08		undefined4	undefined4 080015E8h 
080005e4	3C 00 00 20		undefined4	undefined4 2000003Ch 
080005e8	F8 15 00 08		undefined4	undefined4 080015F8h 
080005ec	28 00 00 20		undefined4	undefined4 20000028h 
080005f0	00 00 02 40		undefined4	undefined4 40020000h 
080005f4	38 00 00 20		undefined4	undefined4 20000038h 
080005f8	80 B5	FUN_080005f8		push {r7,lr} 
080005fa	94 B0			sub sp,#0x50 
080005fc	00 AF			add r7,sp,#0x0 
080005fe	07 F1 1C 03			add.w r3,r7,#0x1c 
08000602	34 22			movs r2,#0x34 
08000604	00 21			movs r1,#0x0 
08000606	18 46			mov r0,r3 
08000608	00 F0 B6 FF			bl 0x08001578 ; REFS: UNCONDITIONAL_CALL->08001578
0800060c	07 F1 08 03			add.w r3,r7,#0x8 
08000610	00 22			movs r2,#0x0 
08000612	1A 60			str r2,[r3,#0x0] ; REFS: WRITE->Stack[-0x50]
08000614	5A 60			str r2,[r3,#0x4] ; REFS: WRITE->Stack[-0x4c]
08000616	9A 60			str r2,[r3,#0x8] ; REFS: WRITE->Stack[-0x48]
08000618	DA 60			str r2,[r3,#0xc] ; REFS: WRITE->Stack[-0x44]
0800061a	1A 61			str r2,[r3,#0x10] ; REFS: WRITE->Stack[-0x40]
0800061c	00 23			movs r3,#0x0 
0800061e	7B 60			str r3,[r7,#0x4] ; REFS: WRITE->Stack[-0x54]
08000620	22 4B			ldr r3,[0x080006ac] ; REFS: READ->080006ac
08000622	1B 6C			ldr r3,[r3,#0x40] ; REFS: READ->40023840
08000624	21 4A			ldr r2,[0x080006ac] ; REFS: READ->080006ac
08000626	43 F0 80 53			orr r3,r3,#0x10000000 
0800062a	13 64			str r3,[r2,#0x40] ; REFS: WRITE->40023840
0800062c	1F 4B			ldr r3,[0x080006ac] ; REFS: READ->080006ac
0800062e	1B 6C			ldr r3,[r3,#0x40] ; REFS: READ->40023840
08000630	03 F0 80 53			and r3,r3,#0x10000000 
08000634	7B 60			str r3,[r7,#0x4] ; REFS: WRITE->Stack[-0x54]
08000636	7B 68			ldr r3,[r7,#0x4] ; REFS: READ->Stack[-0x54]
08000638	00 23			movs r3,#0x0 
0800063a	3B 60			str r3,[r7,#0x0] ; REFS: WRITE->Stack[-0x58]
0800063c	1C 4B			ldr r3,[0x080006b0] ; REFS: READ->080006b0
0800063e	1B 68			ldr r3,[r3,#0x0] ; REFS: READ->40007000
08000640	1B 4A			ldr r2,[0x080006b0] ; REFS: READ->080006b0, PARAM->40007000
08000642	43 F4 40 43			orr r3,r3,#0xc000 
08000646	13 60			str r3,[r2,#0x0] ; REFS: WRITE->40007000
08000648	19 4B			ldr r3,[0x080006b0] ; REFS: READ->080006b0
0800064a	1B 68			ldr r3,[r3,#0x0] ; REFS: READ->40007000
0800064c	03 F4 40 43			and r3,r3,#0xc000 
08000650	3B 60			str r3,[r7,#0x0] ; REFS: WRITE->Stack[-0x58]
08000652	3B 68			ldr r3,[r7,#0x0] ; REFS: READ->Stack[-0x58]
08000654	02 23			movs r3,#0x2 
08000656	FB 61			str r3,[r7,#0x1c] ; REFS: WRITE->Stack[-0x3c]
08000658	01 23			movs r3,#0x1 
0800065a	BB 62			str r3,[r7,#0x28] ; REFS: WRITE->Stack[-0x30]
0800065c	10 23			movs r3,#0x10 
0800065e	FB 62			str r3,[r7,#0x2c] ; REFS: WRITE->Stack[-0x2c]
08000660	00 23			movs r3,#0x0 
08000662	7B 63			str r3,[r7,#0x34] ; REFS: WRITE->Stack[-0x24]
08000664	07 F1 1C 03			add.w r3,r7,#0x1c 
08000668	18 46			mov r0,r3 
0800066a	00 F0 F1 FC			bl 0x08001050 ; REFS: UNCONDITIONAL_CALL->08001050
0800066e	03 46			mov r3,r0 
08000670	00 2B			cmp r3,#0x0 
08000672	01 D0			beq 0x08000678 ; REFS: CONDITIONAL_JUMP->08000678
08000674	00 F0 1C F9			bl 0x080008b0 ; REFS: UNCONDITIONAL_CALL->080008b0
08000678	0F 23			movs r3,#0xf 
0800067a	BB 60			str r3,[r7,#0x8] ; REFS: WRITE->Stack[-0x50]
0800067c	00 23			movs r3,#0x0 
0800067e	FB 60			str r3,[r7,#0xc] ; REFS: WRITE->Stack[-0x4c]
08000680	00 23			movs r3,#0x0 
08000682	3B 61			str r3,[r7,#0x10] ; REFS: WRITE->Stack[-0x48]
08000684	00 23			movs r3,#0x0 
08000686	7B 61			str r3,[r7,#0x14] ; REFS: WRITE->Stack[-0x44]
08000688	00 23			movs r3,#0x0 
0800068a	BB 61			str r3,[r7,#0x18] ; REFS: WRITE->Stack[-0x40]
0800068c	07 F1 08 03			add.w r3,r7,#0x8 
08000690	00 21			movs r1,#0x0 
08000692	18 46			mov r0,r3 
08000694	00 F0 30 FB			bl 0x08000cf8 ; REFS: UNCONDITIONAL_CALL->08000cf8
08000698	03 46			mov r3,r0 
0800069a	00 2B			cmp r3,#0x0 
0800069c	01 D0			beq 0x080006a2 ; REFS: CONDITIONAL_JUMP->080006a2
0800069e	00 F0 07 F9			bl 0x080008b0 ; REFS: UNCONDITIONAL_CALL->080008b0
080006a2	00 BF			nop 
080006a4	50 37			adds r7,#0x50 
080006a6	BD 46			mov sp,r7 
080006a8	80 BD			pop {r7,pc} 
080006aa	00		undefined	?? 00h 
080006ab	BF		undefined	?? BFh 
080006ac	00 38 02 40		undefined4	undefined4 40023800h 
080006b0	00 70 00 40		undefined4	undefined4 40007000h 
080006b4	80 B4	FUN_080006b4		push {r7} 
080006b6	00 AF			add r7,sp,#0x0 
080006b8	05 4B			ldr r3,[0x080006d0] ; REFS: READ->080006d0
080006ba	5B 6B			ldr r3,[r3,#0x34] ; REFS: READ->40023834
080006bc	04 4A			ldr r2,[0x080006d0] ; REFS: READ->080006d0
080006be	43 F0 10 03			orr r3,r3,#0x10 
080006c2	53 63			str r3,[r2,#0x34] ; REFS: WRITE->40023834
080006c4	00 BF			nop 
080006c6	BD 46			mov sp,r7 
080006c8	5D F8 04 7B			pop.w r7 ; REFS: DATA->Stack[-0x4]
080006cc	70 47			bx lr 
080006ce	00		undefined	?? 00h 
080006cf	BF		undefined	?? BFh 
080006d0	00 38 02 40		undefined4	undefined4 40023800h 
080006d4	80 B5	FUN_080006d4		push {r7,lr} 
080006d6	00 AF			add r7,sp,#0x0 
080006d8	1A 4B			ldr r3,[0x08000744] ; REFS: READ->08000744
080006da	1B 6C			ldr r3,[r3,#0x40] ; REFS: READ->40023840
080006dc	19 4A			ldr r2,[0x08000744] ; REFS: READ->08000744
080006de	43 F4 00 23			orr r3,r3,#0x80000 
080006e2	13 64			str r3,[r2,#0x40] ; REFS: WRITE->40023840
080006e4	17 4B			ldr r3,[0x08000744] ; REFS: READ->08000744
080006e6	1B 6B			ldr r3,[r3,#0x30] ; REFS: READ->40023830
080006e8	16 4A			ldr r2,[0x08000744] ; REFS: READ->08000744
080006ea	43 F0 01 03			orr r3,r3,#0x1 
080006ee	13 63			str r3,[r2,#0x30] ; REFS: WRITE->40023830
080006f0	15 4B			ldr r3,[0x08000748] ; REFS: READ->08000748
080006f2	1B 68			ldr r3,[r3,#0x0] ; REFS: READ->40020000
080006f4	14 4A			ldr r2,[0x08000748] ; REFS: READ->08000748
080006f6	23 F0 0F 03			bic r3,r3,#0xf 
080006fa	13 60			str r3,[r2,#0x0] ; REFS: WRITE->40020000
080006fc	12 4B			ldr r3,[0x08000748] ; REFS: READ->08000748
080006fe	1B 68			ldr r3,[r3,#0x0] ; REFS: READ->40020000
08000700	11 4A			ldr r2,[0x08000748] ; REFS: READ->08000748
08000702	43 F0 0A 03			orr r3,r3,#0xa 
08000706	13 60			str r3,[r2,#0x0] ; REFS: WRITE->40020000
08000708	0F 4B			ldr r3,[0x08000748] ; REFS: READ->08000748
0800070a	1B 6A			ldr r3,[r3,#0x20] ; REFS: READ->40020020
0800070c	0E 4A			ldr r2,[0x08000748] ; REFS: READ->08000748
0800070e	23 F0 FF 03			bic r3,r3,#0xff 
08000712	13 62			str r3,[r2,#0x20] ; REFS: WRITE->40020020
08000714	0C 4B			ldr r3,[0x08000748] ; REFS: READ->08000748
08000716	1B 6A			ldr r3,[r3,#0x20] ; REFS: READ->40020020
08000718	0B 4A			ldr r2,[0x08000748] ; REFS: READ->08000748
0800071a	43 F0 88 03			orr r3,r3,#0x88 
0800071e	13 62			str r3,[r2,#0x20] ; REFS: WRITE->40020020
08000720	0A 4B			ldr r3,[0x0800074c] ; REFS: READ->0800074c
08000722	1B 68			ldr r3,[r3,#0x0] ; REFS: READ->20000000
08000724	0A 4A			ldr r2,[0x08000750] ; REFS: READ->08000750
08000726	0B 49			ldr r1,[0x08000754] ; REFS: READ->08000754
08000728	A1 FB 03 13			umull r1,r3,r1,r3 
0800072c	1B 0C			lsrs r3,r3,#0x10 
0800072e	93 60			str r3,[r2,#0x8] ; REFS: WRITE->40004c08
08000730	07 4B			ldr r3,[0x08000750] ; REFS: READ->08000750
08000732	42 F2 2C 02			movw r2,#0x202c 
08000736	DA 60			str r2,[r3,#0xc] ; REFS: WRITE->40004c0c
08000738	34 20			movs r0,#0x34 
0800073a	FF F7 03 FF			bl 0x08000544 ; REFS: UNCONDITIONAL_CALL->08000544
0800073e	00 BF			nop 
08000740	80 BD			pop {r7,pc} 
08000742	00		undefined	?? 00h 
08000743	BF		undefined	?? BFh 
08000744	00 38 02 40		undefined4	undefined4 40023800h 
08000748	00 00 02 40		undefined4	undefined4 40020000h 
0800074c	00 00 00 20		undefined4	undefined4 20000000h 
08000750	00 4C 00 40		undefined4	undefined4 40004C00h 
08000754	C5 B3 A2 91		undefined4	undefined4 91A2B3C5h 
08000758	80 B4	FUN_08000758		push {r7} 
0800075a	00 AF			add r7,sp,#0x0 
0800075c	0B 4B			ldr r3,[0x0800078c] ; REFS: READ->0800078c
0800075e	1B 6B			ldr r3,[r3,#0x30] ; REFS: READ->40023830
08000760	0A 4A			ldr r2,[0x0800078c] ; REFS: READ->0800078c
08000762	43 F0 01 03			orr r3,r3,#0x1 
08000766	13 63			str r3,[r2,#0x30] ; REFS: WRITE->40023830
08000768	09 4B			ldr r3,[0x08000790] ; REFS: READ->08000790
0800076a	1B 68			ldr r3,[r3,#0x0] ; REFS: READ->40020000
0800076c	08 4A			ldr r2,[0x08000790] ; REFS: READ->08000790
0800076e	23 F4 40 63			bic r3,r3,#0xc00 
08000772	13 60			str r3,[r2,#0x0] ; REFS: WRITE->40020000
08000774	06 4B			ldr r3,[0x08000790] ; REFS: READ->08000790
08000776	1B 68			ldr r3,[r3,#0x0] ; REFS: READ->40020000
08000778	05 4A			ldr r2,[0x08000790] ; REFS: READ->08000790
0800077a	43 F4 80 63			orr r3,r3,#0x400 
0800077e	13 60			str r3,[r2,#0x0] ; REFS: WRITE->40020000
08000780	00 BF			nop 
08000782	BD 46			mov sp,r7 
08000784	5D F8 04 7B			pop.w r7 ; REFS: DATA->Stack[-0x4]
08000788	70 47			bx lr 
0800078a	00		undefined	?? 00h 
0800078b	BF		undefined	?? BFh 
0800078c	00 38 02 40		undefined4	undefined4 40023800h 
08000790	00 00 02 40		undefined4	undefined4 40020000h 
08000794	80 B4	FUN_08000794		push {r7} 
08000796	89 B0			sub sp,#0x24 
08000798	00 AF			add r7,sp,#0x0 
0800079a	F8 60			str r0,[r7,#0xc] ; REFS: WRITE->Stack[-0x1c]
0800079c	B9 60			str r1,[r7,#0x8] ; REFS: WRITE->Stack[-0x20]
0800079e	7A 60			str r2,[r7,#0x4] ; REFS: WRITE->Stack[-0x24]
080007a0	42 4B			ldr r3,[0x080008ac] ; REFS: READ->080008ac
080007a2	00 22			movs r2,#0x0 
080007a4	1A 60			str r2,[r3,#0x0] ; REFS: WRITE->50060000
080007a6	41 4A			ldr r2,[0x080008ac] ; REFS: READ->080008ac
080007a8	7B 68			ldr r3,[r7,#0x4] ; REFS: READ->Stack[-0x24]
080007aa	1B 68			ldr r3,[r3,#0x0] 
080007ac	13 61			str r3,[r2,#0x10] ; REFS: WRITE->50060010
080007ae	7B 68			ldr r3,[r7,#0x4] ; REFS: READ->Stack[-0x24]
080007b0	04 33			adds r3,#0x4 
080007b2	3E 4A			ldr r2,[0x080008ac] ; REFS: READ->080008ac
080007b4	1B 68			ldr r3,[r3,#0x0] 
080007b6	53 61			str r3,[r2,#0x14] ; REFS: WRITE->50060014
080007b8	7B 68			ldr r3,[r7,#0x4] ; REFS: READ->Stack[-0x24]
080007ba	08 33			adds r3,#0x8 
080007bc	3B 4A			ldr r2,[0x080008ac] ; REFS: READ->080008ac
080007be	1B 68			ldr r3,[r3,#0x0] 
080007c0	93 61			str r3,[r2,#0x18] ; REFS: WRITE->50060018
080007c2	7B 68			ldr r3,[r7,#0x4] ; REFS: READ->Stack[-0x24]
080007c4	0C 33			adds r3,#0xc 
080007c6	39 4A			ldr r2,[0x080008ac] ; REFS: READ->080008ac
080007c8	1B 68			ldr r3,[r3,#0x0] 
080007ca	D3 61			str r3,[r2,#0x1c] ; REFS: WRITE->5006001c
080007cc	37 4B			ldr r3,[0x080008ac] ; REFS: READ->080008ac
080007ce	0B 22			movs r2,#0xb 
080007d0	1A 60			str r2,[r3,#0x0] ; REFS: WRITE->50060000
080007d2	00 23			movs r3,#0x0 
080007d4	FB 61			str r3,[r7,#0x1c] ; REFS: WRITE->Stack[-0xc]
080007d6	24 E0			b 0x08000822 ; REFS: UNCONDITIONAL_JUMP->08000822
080007d8	FB 69			ldr r3,[r7,#0x1c] ; REFS: READ->Stack[-0xc]
080007da	9B 00			lsls r3,r3,#0x2 
080007dc	1A 46			mov r2,r3 
080007de	FB 68			ldr r3,[r7,#0xc] ; REFS: READ->Stack[-0x1c]
080007e0	13 44			add r3,r2 
080007e2	1B 78			ldrb r3,[r3,#0x0] 
080007e4	1A 06			lsls r2,r3,#0x18 
080007e6	FB 69			ldr r3,[r7,#0x1c] ; REFS: READ->Stack[-0xc]
080007e8	9B 00			lsls r3,r3,#0x2 
080007ea	01 33			adds r3,#0x1 
080007ec	F9 68			ldr r1,[r7,#0xc] ; REFS: READ->Stack[-0x1c]
080007ee	0B 44			add r3,r1 
080007f0	1B 78			ldrb r3,[r3,#0x0] 
080007f2	1B 04			lsls r3,r3,#0x10 
080007f4	1A 43			orrs r2,r3 
080007f6	FB 69			ldr r3,[r7,#0x1c] ; REFS: READ->Stack[-0xc]
080007f8	9B 00			lsls r3,r3,#0x2 
080007fa	02 33			adds r3,#0x2 
080007fc	F9 68			ldr r1,[r7,#0xc] ; REFS: READ->Stack[-0x1c]
080007fe	0B 44			add r3,r1 
08000800	1B 78			ldrb r3,[r3,#0x0] 
08000802	1B 02			lsls r3,r3,#0x8 
08000804	13 43			orrs r3,r2 
08000806	FA 69			ldr r2,[r7,#0x1c] ; REFS: READ->Stack[-0xc]
08000808	92 00			lsls r2,r2,#0x2 
0800080a	03 32			adds r2,#0x3 
0800080c	F9 68			ldr r1,[r7,#0xc] ; REFS: READ->Stack[-0x1c]
0800080e	0A 44			add r2,r1 
08000810	12 78			ldrb r2,[r2,#0x0] 
08000812	13 43			orrs r3,r2 
08000814	3B 61			str r3,[r7,#0x10] ; REFS: WRITE->Stack[-0x18]
08000816	25 4A			ldr r2,[0x080008ac] ; REFS: READ->080008ac
08000818	3B 69			ldr r3,[r7,#0x10] ; REFS: READ->Stack[-0x18]
0800081a	93 60			str r3,[r2,#0x8] ; REFS: WRITE->50060008
0800081c	FB 69			ldr r3,[r7,#0x1c] ; REFS: READ->Stack[-0xc]
0800081e	01 33			adds r3,#0x1 
08000820	FB 61			str r3,[r7,#0x1c] ; REFS: WRITE->Stack[-0xc]
08000822	FB 69			ldr r3,[r7,#0x1c] ; REFS: READ->Stack[-0xc]
08000824	03 2B			cmp r3,#0x3 
08000826	D7 DD			ble 0x080007d8 ; REFS: CONDITIONAL_JUMP->080007d8
08000828	00 BF			nop 
0800082a	20 4B			ldr r3,[0x080008ac] ; REFS: READ->080008ac
0800082c	5B 68			ldr r3,[r3,#0x4] ; REFS: READ->50060004
0800082e	03 F0 01 03			and r3,r3,#0x1 
08000832	00 2B			cmp r3,#0x0 
08000834	F9 D0			beq 0x0800082a ; REFS: CONDITIONAL_JUMP->0800082a
08000836	00 23			movs r3,#0x0 
08000838	BB 61			str r3,[r7,#0x18] ; REFS: WRITE->Stack[-0x10]
0800083a	28 E0			b 0x0800088e ; REFS: UNCONDITIONAL_JUMP->0800088e
0800083c	1B 4B			ldr r3,[0x080008ac] ; REFS: READ->080008ac
0800083e	DB 68			ldr r3,[r3,#0xc] ; REFS: READ->5006000c
08000840	7B 61			str r3,[r7,#0x14] ; REFS: WRITE->Stack[-0x14]
08000842	7B 69			ldr r3,[r7,#0x14] ; REFS: READ->Stack[-0x14]
08000844	1A 0E			lsrs r2,r3,#0x18 
08000846	BB 69			ldr r3,[r7,#0x18] ; REFS: READ->Stack[-0x10]
08000848	9B 00			lsls r3,r3,#0x2 
0800084a	19 46			mov r1,r3 
0800084c	BB 68			ldr r3,[r7,#0x8] ; REFS: READ->Stack[-0x20]
0800084e	0B 44			add r3,r1 
08000850	D2 B2			uxtb r2,r2 
08000852	1A 70			strb r2,[r3,#0x0] 
08000854	7B 69			ldr r3,[r7,#0x14] ; REFS: READ->Stack[-0x14]
08000856	19 0C			lsrs r1,r3,#0x10 
08000858	BB 69			ldr r3,[r7,#0x18] ; REFS: READ->Stack[-0x10]
0800085a	9B 00			lsls r3,r3,#0x2 
0800085c	01 33			adds r3,#0x1 
0800085e	BA 68			ldr r2,[r7,#0x8] ; REFS: READ->Stack[-0x20]
08000860	13 44			add r3,r2 
08000862	CA B2			uxtb r2,r1 
08000864	1A 70			strb r2,[r3,#0x0] 
08000866	7B 69			ldr r3,[r7,#0x14] ; REFS: READ->Stack[-0x14]
08000868	19 0A			lsrs r1,r3,#0x8 
0800086a	BB 69			ldr r3,[r7,#0x18] ; REFS: READ->Stack[-0x10]
0800086c	9B 00			lsls r3,r3,#0x2 
0800086e	02 33			adds r3,#0x2 
08000870	BA 68			ldr r2,[r7,#0x8] ; REFS: READ->Stack[-0x20]
08000872	13 44			add r3,r2 
08000874	CA B2			uxtb r2,r1 
08000876	1A 70			strb r2,[r3,#0x0] 
08000878	BB 69			ldr r3,[r7,#0x18] ; REFS: READ->Stack[-0x10]
0800087a	9B 00			lsls r3,r3,#0x2 
0800087c	03 33			adds r3,#0x3 
0800087e	BA 68			ldr r2,[r7,#0x8] ; REFS: READ->Stack[-0x20]
08000880	13 44			add r3,r2 
08000882	7A 69			ldr r2,[r7,#0x14] ; REFS: READ->Stack[-0x14]
08000884	D2 B2			uxtb r2,r2 
08000886	1A 70			strb r2,[r3,#0x0] 
08000888	BB 69			ldr r3,[r7,#0x18] ; REFS: READ->Stack[-0x10]
0800088a	01 33			adds r3,#0x1 
0800088c	BB 61			str r3,[r7,#0x18] ; REFS: WRITE->Stack[-0x10]
0800088e	BB 69			ldr r3,[r7,#0x18] ; REFS: READ->Stack[-0x10]
08000890	03 2B			cmp r3,#0x3 
08000892	D3 DD			ble 0x0800083c ; REFS: CONDITIONAL_JUMP->0800083c
08000894	05 4B			ldr r3,[0x080008ac] ; REFS: READ->080008ac
08000896	1B 68			ldr r3,[r3,#0x0] ; REFS: READ->50060000
08000898	04 4A			ldr r2,[0x080008ac] ; REFS: READ->080008ac
0800089a	43 F0 80 03			orr r3,r3,#0x80 
0800089e	13 60			str r3,[r2,#0x0] ; REFS: WRITE->50060000
080008a0	00 BF			nop 
080008a2	24 37			adds r7,#0x24 
080008a4	BD 46			mov sp,r7 
080008a6	5D F8 04 7B			pop.w r7 ; REFS: DATA->Stack[-0x4]
080008aa	70 47			bx lr 
080008ac	00 00 06 50		undefined4	undefined4 50060000h 
080008b0	80 B4	FUN_080008b0		push {r7} 
080008b2	00 AF			add r7,sp,#0x0 
080008b4	72 B6			cpsid i 
080008b6	00 BF			nop 
080008b8	00 BF			nop 
080008ba	FD E7			b 0x080008b8 ; REFS: UNCONDITIONAL_JUMP->080008b8
080008bc	80 B4	FUN_080008bc		push {r7} 
080008be	83 B0			sub sp,#0xc 
080008c0	00 AF			add r7,sp,#0x0 
080008c2	00 23			movs r3,#0x0 
080008c4	7B 60			str r3,[r7,#0x4] ; REFS: WRITE->Stack[-0xc]
080008c6	10 4B			ldr r3,[0x08000908] ; REFS: READ->08000908
080008c8	5B 6C			ldr r3,[r3,#0x44] ; REFS: READ->40023844
080008ca	0F 4A			ldr r2,[0x08000908] ; REFS: READ->08000908
080008cc	43 F4 80 43			orr r3,r3,#0x4000 
080008d0	53 64			str r3,[r2,#0x44] ; REFS: WRITE->40023844
080008d2	0D 4B			ldr r3,[0x08000908] ; REFS: READ->08000908
080008d4	5B 6C			ldr r3,[r3,#0x44] ; REFS: READ->40023844
080008d6	03 F4 80 43			and r3,r3,#0x4000 
080008da	7B 60			str r3,[r7,#0x4] ; REFS: WRITE->Stack[-0xc]
080008dc	7B 68			ldr r3,[r7,#0x4] ; REFS: READ->Stack[-0xc]
080008de	00 23			movs r3,#0x0 
080008e0	3B 60			str r3,[r7,#0x0] ; REFS: WRITE->Stack[-0x10]
080008e2	09 4B			ldr r3,[0x08000908] ; REFS: READ->08000908
080008e4	1B 6C			ldr r3,[r3,#0x40] ; REFS: READ->40023840
080008e6	08 4A			ldr r2,[0x08000908] ; REFS: READ->08000908
080008e8	43 F0 80 53			orr r3,r3,#0x10000000 
080008ec	13 64			str r3,[r2,#0x40] ; REFS: WRITE->40023840
080008ee	06 4B			ldr r3,[0x08000908] ; REFS: READ->08000908
080008f0	1B 6C			ldr r3,[r3,#0x40] ; REFS: READ->40023840
080008f2	03 F0 80 53			and r3,r3,#0x10000000 
080008f6	3B 60			str r3,[r7,#0x0] ; REFS: WRITE->Stack[-0x10]
080008f8	3B 68			ldr r3,[r7,#0x0] ; REFS: READ->Stack[-0x10]
080008fa	00 BF			nop 
080008fc	0C 37			adds r7,#0xc 
080008fe	BD 46			mov sp,r7 
08000900	5D F8 04 7B			pop.w r7 ; REFS: DATA->Stack[-0x4]
08000904	70 47			bx lr 
08000906	00		undefined	?? 00h 
08000907	BF		undefined	?? BFh 
08000908	00 38 02 40		undefined4	undefined4 40023800h 
0800090c	80		undefined	?? 80h 
0800090d	B4		undefined	?? B4h 
0800090e	00		undefined	?? 00h 
0800090f	AF		undefined	?? AFh 
08000910	00		undefined	?? 00h 
08000911	BF		undefined	?? BFh 
08000912	FD		undefined	?? FDh 
08000913	E7		undefined	?? E7h 
08000914	80		undefined	?? 80h 
08000915	B4		undefined	?? B4h 
08000916	00		undefined	?? 00h 
08000917	AF		undefined	?? AFh 
08000918	00		undefined	?? 00h 
08000919	BF		undefined	?? BFh 
0800091a	FD		undefined	?? FDh 
0800091b	E7		undefined	?? E7h 
0800091c	80		undefined	?? 80h 
0800091d	B4		undefined	?? B4h 
0800091e	00		undefined	?? 00h 
0800091f	AF		undefined	?? AFh 
08000920	00		undefined	?? 00h 
08000921	BF		undefined	?? BFh 
08000922	FD		undefined	?? FDh 
08000923	E7		undefined	?? E7h 
08000924	80		undefined	?? 80h 
08000925	B4		undefined	?? B4h 
08000926	00		undefined	?? 00h 
08000927	AF		undefined	?? AFh 
08000928	00		undefined	?? 00h 
08000929	BF		undefined	?? BFh 
0800092a	FD		undefined	?? FDh 
0800092b	E7		undefined	?? E7h 
0800092c	80		undefined	?? 80h 
0800092d	B4		undefined	?? B4h 
0800092e	00		undefined	?? 00h 
0800092f	AF		undefined	?? AFh 
08000930	00		undefined	?? 00h 
08000931	BF		undefined	?? BFh 
08000932	FD		undefined	?? FDh 
08000933	E7		undefined	?? E7h 
08000934	80 B4			push {r7} 
08000936	00 AF			add r7,sp,#0x0 
08000938	00 BF			nop 
0800093a	BD 46			mov sp,r7 
0800093c	5D F8 04 7B			pop.w r7 
08000940	70 47			bx lr 
08000942	80 B4			push {r7} 
08000944	00 AF			add r7,sp,#0x0 
08000946	00 BF			nop 
08000948	BD 46			mov sp,r7 
0800094a	5D F8 04 7B			pop.w r7 
0800094e	70 47			bx lr 
08000950	80 B4			push {r7} 
08000952	00 AF			add r7,sp,#0x0 
08000954	00 BF			nop 
08000956	BD 46			mov sp,r7 
08000958	5D F8 04 7B			pop.w r7 
0800095c	70 47			bx lr 
0800095e	80 B5	FUN_0800095e		push {r7,lr} 
08000960	00 AF			add r7,sp,#0x0 
08000962	00 F0 C3 F8			bl 0x08000aec ; REFS: UNCONDITIONAL_CALL->08000aec
08000966	00 BF			nop 
08000968	80 BD			pop {r7,pc} 
0800096a	00		undefined	?? 00h 
0800096b	00		undefined	?? 00h 
0800096c	80 B4			push {r7} 
0800096e	83 B0			sub sp,#0xc 
08000970	00 AF			add r7,sp,#0x0 
08000972	13 4B			ldr r3,[0x080009c0] ; REFS: READ->080009c0
08000974	1B 68			ldr r3,[r3,#0x0] ; REFS: READ->40004c00
08000976	03 F0 20 03			and r3,r3,#0x20 
0800097a	00 2B			cmp r3,#0x0 
0800097c	1A D0			beq 0x080009b4 ; REFS: CONDITIONAL_JUMP->080009b4
0800097e	10 4B			ldr r3,[0x080009c0] ; REFS: READ->080009c0
08000980	5B 68			ldr r3,[r3,#0x4] ; REFS: READ->40004c04
08000982	FB 71			strb r3,[r7,#0x7] 
08000984	0F 4B			ldr r3,[0x080009c4] ; REFS: READ->080009c4
08000986	1B 78			ldrb r3,[r3,#0x0] ; REFS: READ->20000038
08000988	DB B2			uxtb r3,r3 
0800098a	0F 2B			cmp r3,#0xf 
0800098c	12 D8			bhi 0x080009b4 ; REFS: CONDITIONAL_JUMP->080009b4
0800098e	0D 4B			ldr r3,[0x080009c4] ; REFS: READ->080009c4
08000990	1B 78			ldrb r3,[r3,#0x0] ; REFS: READ->20000038
08000992	DB B2			uxtb r3,r3 
08000994	5A 1C			adds r2,r3,#0x1 
08000996	D1 B2			uxtb r1,r2 
08000998	0A 4A			ldr r2,[0x080009c4] ; REFS: READ->080009c4
0800099a	11 70			strb r1,[r2,#0x0] ; REFS: WRITE->20000038
0800099c	19 46			mov r1,r3 
0800099e	0A 4A			ldr r2,[0x080009c8] ; REFS: READ->080009c8
080009a0	FB 79			ldrb r3,[r7,#0x7] 
080009a2	53 54			strb r3,[r2,r1] 
080009a4	07 4B			ldr r3,[0x080009c4] ; REFS: READ->080009c4
080009a6	1B 78			ldrb r3,[r3,#0x0] ; REFS: READ->20000038
080009a8	DB B2			uxtb r3,r3 
080009aa	10 2B			cmp r3,#0x10 
080009ac	02 D1			bne 0x080009b4 ; REFS: CONDITIONAL_JUMP->080009b4
080009ae	07 4B			ldr r3,[0x080009cc] ; REFS: READ->080009cc
080009b0	01 22			movs r2,#0x1 
080009b2	1A 70			strb r2,[r3,#0x0] ; REFS: WRITE->20000039
080009b4	00 BF			nop 
080009b6	0C 37			adds r7,#0xc 
080009b8	BD 46			mov sp,r7 
080009ba	5D F8 04 7B			pop.w r7 
080009be	70 47			bx lr 
080009c0	00 4C 00 40		undefined4	undefined4 40004C00h 
080009c4	38 00 00 20		undefined4	undefined4 20000038h 
080009c8	28 00 00 20		undefined4	undefined4 20000028h 
080009cc	39 00 00 20		undefined4	undefined4 20000039h 
080009d0	80 B4	FUN_080009d0		push {r7} 
080009d2	00 AF			add r7,sp,#0x0 
080009d4	06 4B			ldr r3,[0x080009f0] ; REFS: READ->080009f0
080009d6	D3 F8 88 30			ldr.w r3,[r3,#0x88] ; REFS: READ->e000ed88
080009da	05 4A			ldr r2,[0x080009f0] ; REFS: READ->080009f0
080009dc	43 F4 70 03			orr r3,r3,#0xf00000 
080009e0	C2 F8 88 30			str.w r3,[r2,#0x88] ; REFS: WRITE->e000ed88
080009e4	00 BF			nop 
080009e6	BD 46			mov sp,r7 
080009e8	5D F8 04 7B			pop.w r7 ; REFS: DATA->Stack[-0x4]
080009ec	70 47			bx lr 
080009ee	00		undefined	?? 00h 
080009ef	BF		undefined	?? BFh 
080009f0	00 ED 00 E0		undefined4	undefined4 E000ED00h 
080009f4	DF F8 34 D0			ldr.w sp,[0x08000a2c] ; REFS: READ->08000a2c
080009f8	FF F7 EA FF			bl 0x080009d0 ; REFS: UNCONDITIONAL_CALL->080009d0
080009fc	0C 48			ldr r0,[0x08000a30] ; REFS: READ->08000a30, PARAM->20000000
080009fe	0D 49			ldr r1,[0x08000a34] ; REFS: READ->08000a34, PARAM->2000000c
08000a00	0D 4A			ldr r2,[0x08000a38] ; REFS: READ->08000a38
08000a02	00 23			movs r3,#0x0 
08000a04	02 E0			b 0x08000a0c ; REFS: UNCONDITIONAL_JUMP->08000a0c
08000a06	D4 58			ldr r4,[r2,r3] ; REFS: READ->08001628
08000a08	C4 50			str r4,[r0,r3] ; REFS: WRITE->20000000
08000a0a	04 33			adds r3,#0x4 
08000a0c	C4 18			adds r4,r0,r3 
08000a0e	8C 42			cmp r4,r1 
08000a10	F9 D3			bcc 0x08000a06 ; REFS: CONDITIONAL_JUMP->08000a06
08000a12	0A 4A			ldr r2,[0x08000a3c] ; REFS: READ->08000a3c
08000a14	0A 4C			ldr r4,[0x08000a40] ; REFS: READ->08000a40
08000a16	00 23			movs r3,#0x0 
08000a18	01 E0			b 0x08000a1e ; REFS: UNCONDITIONAL_JUMP->08000a1e
08000a1a	13 60			str r3,[r2,#0x0] ; REFS: WRITE->2000000c
08000a1c	04 32			adds r2,#0x4 
08000a1e	A2 42			cmp r2,r4 
08000a20	FB D3			bcc 0x08000a1a ; REFS: CONDITIONAL_JUMP->08000a1a
08000a22	00 F0 B1 FD			bl 0x08001588 ; REFS: UNCONDITIONAL_CALL->08001588
08000a26	FF F7 AB FD			bl 0x08000580 ; REFS: UNCONDITIONAL_CALL->08000580
08000a2a	70 47			bx lr 
08000a2c	00 00 05 20		undefined4	undefined4 20050000h 
08000a30	00 00 00 20		undefined4	undefined4 20000000h 
08000a34	0C 00 00 20		undefined4	undefined4 2000000Ch 
08000a38	28 16 00 08		undefined4	undefined4 08001628h 
08000a3c	0C 00 00 20		undefined4	undefined4 2000000Ch 
08000a40	50 00 00 20		undefined4	undefined4 20000050h 
08000a44	FE		undefined	?? FEh 
08000a45	E7		undefined	?? E7h 
08000a46	00		undefined	?? 00h 
08000a47	00		undefined	?? 00h 
08000a48	80 B5	FUN_08000a48		push {r7,lr} 
08000a4a	00 AF			add r7,sp,#0x0 
08000a4c	0E 4B			ldr r3,[0x08000a88] ; REFS: READ->08000a88
08000a4e	1B 68			ldr r3,[r3,#0x0] ; REFS: READ->40023c00
08000a50	0D 4A			ldr r2,[0x08000a88] ; REFS: READ->08000a88
08000a52	43 F4 00 73			orr r3,r3,#0x200 
08000a56	13 60			str r3,[r2,#0x0] ; REFS: WRITE->40023c00
08000a58	0B 4B			ldr r3,[0x08000a88] ; REFS: READ->08000a88
08000a5a	1B 68			ldr r3,[r3,#0x0] ; REFS: READ->40023c00
08000a5c	0A 4A			ldr r2,[0x08000a88] ; REFS: READ->08000a88
08000a5e	43 F4 80 63			orr r3,r3,#0x400 
08000a62	13 60			str r3,[r2,#0x0] ; REFS: WRITE->40023c00
08000a64	08 4B			ldr r3,[0x08000a88] ; REFS: READ->08000a88
08000a66	1B 68			ldr r3,[r3,#0x0] ; REFS: READ->40023c00
08000a68	07 4A			ldr r2,[0x08000a88] ; REFS: READ->08000a88, PARAM->40023c00
08000a6a	43 F4 80 73			orr r3,r3,#0x100 
08000a6e	13 60			str r3,[r2,#0x0] ; REFS: WRITE->40023c00
08000a70	03 20			movs r0,#0x3 
08000a72	00 F0 0D F9			bl 0x08000c90 ; REFS: UNCONDITIONAL_CALL->08000c90
08000a76	0F 20			movs r0,#0xf 
08000a78	00 F0 08 F8			bl 0x08000a8c ; REFS: UNCONDITIONAL_CALL->08000a8c
08000a7c	FF F7 1E FF			bl 0x080008bc ; REFS: UNCONDITIONAL_CALL->080008bc
08000a80	00 23			movs r3,#0x0 
08000a82	18 46			mov r0,r3 
08000a84	80 BD			pop {r7,pc} 
08000a86	00		undefined	?? 00h 
08000a87	BF		undefined	?? BFh 
08000a88	00 3C 02 40		undefined4	undefined4 40023C00h 
08000a8c	80 B5	FUN_08000a8c		push {r7,lr} 
08000a8e	82 B0			sub sp,#0x8 
08000a90	00 AF			add r7,sp,#0x0 
08000a92	78 60			str r0,[r7,#0x4] ; REFS: WRITE->Stack[-0xc]
08000a94	12 4B			ldr r3,[0x08000ae0] ; REFS: READ->08000ae0
08000a96	1A 68			ldr r2,[r3,#0x0] ; REFS: READ->20000000
08000a98	12 4B			ldr r3,[0x08000ae4] ; REFS: READ->08000ae4
08000a9a	1B 78			ldrb r3,[r3,#0x0] ; REFS: READ->20000008
08000a9c	19 46			mov r1,r3 
08000a9e	4F F4 7A 73			mov.w r3,#0x3e8 
08000aa2	B3 FB F1 F3			udiv r3,r3,r1 
08000aa6	B2 FB F3 F3			udiv r3,r2,r3 
08000aaa	18 46			mov r0,r3 
08000aac	00 F0 17 F9			bl 0x08000cde ; REFS: UNCONDITIONAL_CALL->08000cde
08000ab0	03 46			mov r3,r0 
08000ab2	00 2B			cmp r3,#0x0 
08000ab4	01 D0			beq 0x08000aba ; REFS: CONDITIONAL_JUMP->08000aba
08000ab6	01 23			movs r3,#0x1 
08000ab8	0E E0			b 0x08000ad8 ; REFS: UNCONDITIONAL_JUMP->08000ad8
08000aba	7B 68			ldr r3,[r7,#0x4] ; REFS: READ->Stack[-0xc]
08000abc	0F 2B			cmp r3,#0xf 
08000abe	0A D8			bhi 0x08000ad6 ; REFS: CONDITIONAL_JUMP->08000ad6
08000ac0	00 22			movs r2,#0x0 
08000ac2	79 68			ldr r1,[r7,#0x4] ; REFS: READ->Stack[-0xc]
08000ac4	4F F0 FF 30			mov.w r0,#0xffffffff 
08000ac8	00 F0 ED F8			bl 0x08000ca6 ; REFS: UNCONDITIONAL_CALL->08000ca6
08000acc	06 4A			ldr r2,[0x08000ae8] ; REFS: READ->08000ae8
08000ace	7B 68			ldr r3,[r7,#0x4] ; REFS: READ->Stack[-0xc]
08000ad0	13 60			str r3,[r2,#0x0] ; REFS: WRITE->20000004
08000ad2	00 23			movs r3,#0x0 
08000ad4	00 E0			b 0x08000ad8 ; REFS: UNCONDITIONAL_JUMP->08000ad8
08000ad6	01 23			movs r3,#0x1 
08000ad8	18 46			mov r0,r3 
08000ada	08 37			adds r7,#0x8 
08000adc	BD 46			mov sp,r7 
08000ade	80 BD			pop {r7,pc} 
08000ae0	00 00 00 20		undefined4	undefined4 20000000h 
08000ae4	08 00 00 20		undefined4	undefined4 20000008h 
08000ae8	04 00 00 20		undefined4	undefined4 20000004h 
08000aec	80 B4	FUN_08000aec		push {r7} 
08000aee	00 AF			add r7,sp,#0x0 
08000af0	06 4B			ldr r3,[0x08000b0c] ; REFS: READ->08000b0c
08000af2	1B 78			ldrb r3,[r3,#0x0] ; REFS: READ->20000008
08000af4	1A 46			mov r2,r3 
08000af6	06 4B			ldr r3,[0x08000b10] ; REFS: READ->08000b10
08000af8	1B 68			ldr r3,[r3,#0x0] ; REFS: READ->2000004c
08000afa	13 44			add r3,r2 
08000afc	04 4A			ldr r2,[0x08000b10] ; REFS: READ->08000b10
08000afe	13 60			str r3,[r2,#0x0] ; REFS: WRITE->2000004c
08000b00	00 BF			nop 
08000b02	BD 46			mov sp,r7 
08000b04	5D F8 04 7B			pop.w r7 ; REFS: DATA->Stack[-0x4]
08000b08	70 47			bx lr 
08000b0a	00		undefined	?? 00h 
08000b0b	BF		undefined	?? BFh 
08000b0c	08 00 00 20		undefined4	undefined4 20000008h 
08000b10	4C 00 00 20		undefined4	undefined4 2000004Ch 
08000b14	80 B4	FUN_08000b14		push {r7} 
08000b16	00 AF			add r7,sp,#0x0 
08000b18	03 4B			ldr r3,[0x08000b28] ; REFS: READ->08000b28
08000b1a	1B 68			ldr r3,[r3,#0x0] ; REFS: READ->2000004c
08000b1c	18 46			mov r0,r3 
08000b1e	BD 46			mov sp,r7 
08000b20	5D F8 04 7B			pop.w r7 ; REFS: DATA->Stack[-0x4]
08000b24	70 47			bx lr 
08000b26	00		undefined	?? 00h 
08000b27	BF		undefined	?? BFh 
08000b28	4C 00 00 20		undefined4	undefined4 2000004Ch 
08000b2c	80 B4	FUN_08000b2c		push {r7} 
08000b2e	85 B0			sub sp,#0x14 
08000b30	00 AF			add r7,sp,#0x0 
08000b32	78 60			str r0,[r7,#0x4] ; REFS: WRITE->Stack[-0x14]
08000b34	7B 68			ldr r3,[r7,#0x4] ; REFS: READ->Stack[-0x14]
08000b36	03 F0 07 03			and r3,r3,#0x7 
08000b3a	FB 60			str r3,[r7,#0xc] ; REFS: WRITE->Stack[-0xc]
08000b3c	0C 4B			ldr r3,[0x08000b70] ; REFS: READ->08000b70
08000b3e	DB 68			ldr r3,[r3,#0xc] ; REFS: READ->e000ed0c
08000b40	BB 60			str r3,[r7,#0x8] ; REFS: WRITE->Stack[-0x10]
08000b42	BA 68			ldr r2,[r7,#0x8] ; REFS: READ->Stack[-0x10]
08000b44	4F F6 FF 03			movw r3,#0xf8ff 
08000b48	13 40			ands r3,r2 
08000b4a	BB 60			str r3,[r7,#0x8] ; REFS: WRITE->Stack[-0x10]
08000b4c	FB 68			ldr r3,[r7,#0xc] ; REFS: READ->Stack[-0xc]
08000b4e	1A 02			lsls r2,r3,#0x8 
08000b50	BB 68			ldr r3,[r7,#0x8] ; REFS: READ->Stack[-0x10]
08000b52	13 43			orrs r3,r2 
08000b54	43 F0 BF 63			orr r3,r3,#0x5f80000 
08000b58	43 F4 00 33			orr r3,r3,#0x20000 
08000b5c	BB 60			str r3,[r7,#0x8] ; REFS: WRITE->Stack[-0x10]
08000b5e	04 4A			ldr r2,[0x08000b70] ; REFS: READ->08000b70
08000b60	BB 68			ldr r3,[r7,#0x8] ; REFS: READ->Stack[-0x10]
08000b62	D3 60			str r3,[r2,#0xc] ; REFS: WRITE->e000ed0c
08000b64	00 BF			nop 
08000b66	14 37			adds r7,#0x14 
08000b68	BD 46			mov sp,r7 
08000b6a	5D F8 04 7B			pop.w r7 ; REFS: DATA->Stack[-0x4]
08000b6e	70 47			bx lr 
08000b70	00 ED 00 E0		undefined4	undefined4 E000ED00h 
08000b74	80 B4	FUN_08000b74		push {r7} 
08000b76	00 AF			add r7,sp,#0x0 
08000b78	04 4B			ldr r3,[0x08000b8c] ; REFS: READ->08000b8c
08000b7a	DB 68			ldr r3,[r3,#0xc] ; REFS: READ->e000ed0c
08000b7c	1B 0A			lsrs r3,r3,#0x8 
08000b7e	03 F0 07 03			and r3,r3,#0x7 
08000b82	18 46			mov r0,r3 
08000b84	BD 46			mov sp,r7 
08000b86	5D F8 04 7B			pop.w r7 ; REFS: DATA->Stack[-0x4]
08000b8a	70 47			bx lr 
08000b8c	00 ED 00 E0		undefined4	undefined4 E000ED00h 
08000b90	80 B4	FUN_08000b90		push {r7} 
08000b92	83 B0			sub sp,#0xc 
08000b94	00 AF			add r7,sp,#0x0 
08000b96	03 46			mov r3,r0 
08000b98	39 60			str r1,[r7,#0x0] ; REFS: WRITE->Stack[-0x10]
08000b9a	FB 71			strb r3,[r7,#0x7] ; REFS: WRITE->Stack[-0x9]
08000b9c	97 F9 07 30			ldrsb.w r3,[r7,#0x7] ; REFS: READ->Stack[-0x9]
08000ba0	00 2B			cmp r3,#0x0 
08000ba2	0A DB			blt 0x08000bba ; REFS: CONDITIONAL_JUMP->08000bba
08000ba4	3B 68			ldr r3,[r7,#0x0] ; REFS: READ->Stack[-0x10]
08000ba6	DA B2			uxtb r2,r3 
08000ba8	0C 49			ldr r1,[0x08000bdc] ; REFS: READ->08000bdc
08000baa	97 F9 07 30			ldrsb.w r3,[r7,#0x7] ; REFS: READ->Stack[-0x9]
08000bae	12 01			lsls r2,r2,#0x4 
08000bb0	D2 B2			uxtb r2,r2 
08000bb2	0B 44			add r3,r1 
08000bb4	83 F8 00 23			strb.w r2,[r3,#0x300] 
08000bb8	0A E0			b 0x08000bd0 ; REFS: UNCONDITIONAL_JUMP->08000bd0
08000bba	3B 68			ldr r3,[r7,#0x0] ; REFS: READ->Stack[-0x10]
08000bbc	DA B2			uxtb r2,r3 
08000bbe	08 49			ldr r1,[0x08000be0] ; REFS: READ->08000be0
08000bc0	FB 79			ldrb r3,[r7,#0x7] ; REFS: READ->Stack[-0x9]
08000bc2	03 F0 0F 03			and r3,r3,#0xf 
08000bc6	04 3B			subs r3,#0x4 
08000bc8	12 01			lsls r2,r2,#0x4 
08000bca	D2 B2			uxtb r2,r2 
08000bcc	0B 44			add r3,r1 
08000bce	1A 76			strb r2,[r3,#0x18] 
08000bd0	00 BF			nop 
08000bd2	0C 37			adds r7,#0xc 
08000bd4	BD 46			mov sp,r7 
08000bd6	5D F8 04 7B			pop.w r7 ; REFS: DATA->Stack[-0x4]
08000bda	70 47			bx lr 
08000bdc	00 E1 00 E0		undefined4	undefined4 E000E100h 
08000be0	00 ED 00 E0		undefined4	undefined4 E000ED00h 
08000be4	80 B4	FUN_08000be4		push {r7} 
08000be6	89 B0			sub sp,#0x24 
08000be8	00 AF			add r7,sp,#0x0 
08000bea	F8 60			str r0,[r7,#0xc] ; REFS: WRITE->Stack[-0x1c]
08000bec	B9 60			str r1,[r7,#0x8] ; REFS: WRITE->Stack[-0x20]
08000bee	7A 60			str r2,[r7,#0x4] ; REFS: WRITE->Stack[-0x24]
08000bf0	FB 68			ldr r3,[r7,#0xc] ; REFS: READ->Stack[-0x1c]
08000bf2	03 F0 07 03			and r3,r3,#0x7 
08000bf6	FB 61			str r3,[r7,#0x1c] ; REFS: WRITE->Stack[-0xc]
08000bf8	FB 69			ldr r3,[r7,#0x1c] ; REFS: READ->Stack[-0xc]
08000bfa	C3 F1 07 03			rsb.w r3,r3,#0x7 
08000bfe	04 2B			cmp r3,#0x4 
08000c00	28 BF			it cs 
08000c02	04 23			mov.cs r3,#0x4 
08000c04	BB 61			str r3,[r7,#0x18] ; REFS: WRITE->Stack[-0x10]
08000c06	FB 69			ldr r3,[r7,#0x1c] ; REFS: READ->Stack[-0xc]
08000c08	04 33			adds r3,#0x4 
08000c0a	06 2B			cmp r3,#0x6 
08000c0c	02 D9			bls 0x08000c14 ; REFS: CONDITIONAL_JUMP->08000c14
08000c0e	FB 69			ldr r3,[r7,#0x1c] ; REFS: READ->Stack[-0xc]
08000c10	03 3B			subs r3,#0x3 
08000c12	00 E0			b 0x08000c16 ; REFS: UNCONDITIONAL_JUMP->08000c16
08000c14	00 23			movs r3,#0x0 
08000c16	7B 61			str r3,[r7,#0x14] ; REFS: WRITE->Stack[-0x14]
08000c18	4F F0 FF 32			mov.w r2,#0xffffffff 
08000c1c	BB 69			ldr r3,[r7,#0x18] ; REFS: READ->Stack[-0x10]
08000c1e	02 FA 03 F3			lsl.w r3,r2,r3 
08000c22	DA 43			mvns r2,r3 
08000c24	BB 68			ldr r3,[r7,#0x8] ; REFS: READ->Stack[-0x20]
08000c26	1A 40			ands r2,r3 
08000c28	7B 69			ldr r3,[r7,#0x14] ; REFS: READ->Stack[-0x14]
08000c2a	9A 40			lsls r2,r3 
08000c2c	4F F0 FF 31			mov.w r1,#0xffffffff 
08000c30	7B 69			ldr r3,[r7,#0x14] ; REFS: READ->Stack[-0x14]
08000c32	01 FA 03 F3			lsl.w r3,r1,r3 
08000c36	D9 43			mvns r1,r3 
08000c38	7B 68			ldr r3,[r7,#0x4] ; REFS: READ->Stack[-0x24]
08000c3a	0B 40			ands r3,r1 
08000c3c	13 43			orrs r3,r2 
08000c3e	18 46			mov r0,r3 
08000c40	24 37			adds r7,#0x24 
08000c42	BD 46			mov sp,r7 
08000c44	5D F8 04 7B			pop.w r7 ; REFS: DATA->Stack[-0x4]
08000c48	70 47			bx lr 
08000c4a	00		undefined	?? 00h 
08000c4b	00		undefined	?? 00h 
08000c4c	80 B5	FUN_08000c4c		push {r7,lr} 
08000c4e	82 B0			sub sp,#0x8 
08000c50	00 AF			add r7,sp,#0x0 
08000c52	78 60			str r0,[r7,#0x4] ; REFS: WRITE->Stack[-0xc]
08000c54	7B 68			ldr r3,[r7,#0x4] ; REFS: READ->Stack[-0xc]
08000c56	01 3B			subs r3,#0x1 
08000c58	B3 F1 80 7F			cmp.w r3,#0x1000000 
08000c5c	01 D3			bcc 0x08000c62 ; REFS: CONDITIONAL_JUMP->08000c62
08000c5e	01 23			movs r3,#0x1 
08000c60	0F E0			b 0x08000c82 ; REFS: UNCONDITIONAL_JUMP->08000c82
08000c62	0A 4A			ldr r2,[0x08000c8c] ; REFS: READ->08000c8c
08000c64	7B 68			ldr r3,[r7,#0x4] ; REFS: READ->Stack[-0xc]
08000c66	01 3B			subs r3,#0x1 
08000c68	53 60			str r3,[r2,#0x4] ; REFS: WRITE->e000e014
08000c6a	0F 21			movs r1,#0xf 
08000c6c	4F F0 FF 30			mov.w r0,#0xffffffff 
08000c70	FF F7 8E FF			bl 0x08000b90 ; REFS: UNCONDITIONAL_CALL->08000b90
08000c74	05 4B			ldr r3,[0x08000c8c] ; REFS: READ->08000c8c
08000c76	00 22			movs r2,#0x0 
08000c78	9A 60			str r2,[r3,#0x8] ; REFS: WRITE->e000e018
08000c7a	04 4B			ldr r3,[0x08000c8c] ; REFS: READ->08000c8c
08000c7c	07 22			movs r2,#0x7 
08000c7e	1A 60			str r2,[r3,#0x0] ; REFS: WRITE->e000e010
08000c80	00 23			movs r3,#0x0 
08000c82	18 46			mov r0,r3 
08000c84	08 37			adds r7,#0x8 
08000c86	BD 46			mov sp,r7 
08000c88	80 BD			pop {r7,pc} 
08000c8a	00		undefined	?? 00h 
08000c8b	BF		undefined	?? BFh 
08000c8c	10 E0 00 E0		undefined4	undefined4 E000E010h 
08000c90	80 B5	FUN_08000c90		push {r7,lr} 
08000c92	82 B0			sub sp,#0x8 
08000c94	00 AF			add r7,sp,#0x0 
08000c96	78 60			str r0,[r7,#0x4] ; REFS: WRITE->Stack[-0xc]
08000c98	78 68			ldr r0,[r7,#0x4] ; REFS: READ->Stack[-0xc]
08000c9a	FF F7 47 FF			bl 0x08000b2c ; REFS: UNCONDITIONAL_CALL->08000b2c
08000c9e	00 BF			nop 
08000ca0	08 37			adds r7,#0x8 
08000ca2	BD 46			mov sp,r7 
08000ca4	80 BD			pop {r7,pc} 
08000ca6	80 B5	FUN_08000ca6		push {r7,lr} 
08000ca8	86 B0			sub sp,#0x18 
08000caa	00 AF			add r7,sp,#0x0 
08000cac	03 46			mov r3,r0 
08000cae	B9 60			str r1,[r7,#0x8] ; REFS: WRITE->Stack[-0x18]
08000cb0	7A 60			str r2,[r7,#0x4] ; REFS: WRITE->Stack[-0x1c]
08000cb2	FB 73			strb r3,[r7,#0xf] ; REFS: WRITE->Stack[-0x11]
08000cb4	00 23			movs r3,#0x0 
08000cb6	7B 61			str r3,[r7,#0x14] ; REFS: WRITE->Stack[-0xc]
08000cb8	FF F7 5C FF			bl 0x08000b74 ; REFS: UNCONDITIONAL_CALL->08000b74
08000cbc	78 61			str r0,[r7,#0x14] ; REFS: WRITE->Stack[-0xc]
08000cbe	7A 68			ldr r2,[r7,#0x4] ; REFS: READ->Stack[-0x1c]
08000cc0	B9 68			ldr r1,[r7,#0x8] ; REFS: READ->Stack[-0x18]
08000cc2	78 69			ldr r0,[r7,#0x14] ; REFS: READ->Stack[-0xc]
08000cc4	FF F7 8E FF			bl 0x08000be4 ; REFS: UNCONDITIONAL_CALL->08000be4
08000cc8	02 46			mov r2,r0 
08000cca	97 F9 0F 30			ldrsb.w r3,[r7,#0xf] ; REFS: READ->Stack[-0x11]
08000cce	11 46			mov r1,r2 
08000cd0	18 46			mov r0,r3 
08000cd2	FF F7 5D FF			bl 0x08000b90 ; REFS: UNCONDITIONAL_CALL->08000b90
08000cd6	00 BF			nop 
08000cd8	18 37			adds r7,#0x18 
08000cda	BD 46			mov sp,r7 
08000cdc	80 BD			pop {r7,pc} 
08000cde	80 B5	FUN_08000cde		push {r7,lr} 
08000ce0	82 B0			sub sp,#0x8 
08000ce2	00 AF			add r7,sp,#0x0 
08000ce4	78 60			str r0,[r7,#0x4] ; REFS: WRITE->Stack[-0xc]
08000ce6	78 68			ldr r0,[r7,#0x4] ; REFS: READ->Stack[-0xc]
08000ce8	FF F7 B0 FF			bl 0x08000c4c ; REFS: UNCONDITIONAL_CALL->08000c4c
08000cec	03 46			mov r3,r0 
08000cee	18 46			mov r0,r3 
08000cf0	08 37			adds r7,#0x8 
08000cf2	BD 46			mov sp,r7 
08000cf4	80 BD			pop {r7,pc} 
08000cf6	00		undefined	?? 00h 
08000cf7	00		undefined	?? 00h 
08000cf8	80 B5	FUN_08000cf8		push {r7,lr} 
08000cfa	84 B0			sub sp,#0x10 
08000cfc	00 AF			add r7,sp,#0x0 
08000cfe	78 60			str r0,[r7,#0x4] ; REFS: WRITE->Stack[-0x14]
08000d00	39 60			str r1,[r7,#0x0] ; REFS: WRITE->Stack[-0x18]
08000d02	7B 68			ldr r3,[r7,#0x4] ; REFS: READ->Stack[-0x14]
08000d04	00 2B			cmp r3,#0x0 
08000d06	01 D1			bne 0x08000d0c ; REFS: CONDITIONAL_JUMP->08000d0c
08000d08	01 23			movs r3,#0x1 
08000d0a	CC E0			b 0x08000ea6 ; REFS: UNCONDITIONAL_JUMP->08000ea6
08000d0c	68 4B			ldr r3,[0x08000eb0] ; REFS: READ->08000eb0
08000d0e	1B 68			ldr r3,[r3,#0x0] ; REFS: READ->40023c00
08000d10	03 F0 07 03			and r3,r3,#0x7 
08000d14	3A 68			ldr r2,[r7,#0x0] ; REFS: READ->Stack[-0x18]
08000d16	9A 42			cmp r2,r3 
08000d18	0C D9			bls 0x08000d34 ; REFS: CONDITIONAL_JUMP->08000d34
08000d1a	65 4B			ldr r3,[0x08000eb0] ; REFS: READ->08000eb0
08000d1c	3A 68			ldr r2,[r7,#0x0] ; REFS: READ->Stack[-0x18]
08000d1e	D2 B2			uxtb r2,r2 
08000d20	1A 70			strb r2,[r3,#0x0] ; REFS: WRITE->40023c00
08000d22	63 4B			ldr r3,[0x08000eb0] ; REFS: READ->08000eb0
08000d24	1B 68			ldr r3,[r3,#0x0] ; REFS: READ->40023c00
08000d26	03 F0 07 03			and r3,r3,#0x7 
08000d2a	3A 68			ldr r2,[r7,#0x0] ; REFS: READ->Stack[-0x18]
08000d2c	9A 42			cmp r2,r3 
08000d2e	01 D0			beq 0x08000d34 ; REFS: CONDITIONAL_JUMP->08000d34
08000d30	01 23			movs r3,#0x1 
08000d32	B8 E0			b 0x08000ea6 ; REFS: UNCONDITIONAL_JUMP->08000ea6
08000d34	7B 68			ldr r3,[r7,#0x4] ; REFS: READ->Stack[-0x14]
08000d36	1B 68			ldr r3,[r3,#0x0] 
08000d38	03 F0 02 03			and r3,r3,#0x2 
08000d3c	00 2B			cmp r3,#0x0 
08000d3e	20 D0			beq 0x08000d82 ; REFS: CONDITIONAL_JUMP->08000d82
08000d40	7B 68			ldr r3,[r7,#0x4] ; REFS: READ->Stack[-0x14]
08000d42	1B 68			ldr r3,[r3,#0x0] 
08000d44	03 F0 04 03			and r3,r3,#0x4 
08000d48	00 2B			cmp r3,#0x0 
08000d4a	05 D0			beq 0x08000d58 ; REFS: CONDITIONAL_JUMP->08000d58
08000d4c	59 4B			ldr r3,[0x08000eb4] ; REFS: READ->08000eb4
08000d4e	9B 68			ldr r3,[r3,#0x8] ; REFS: READ->40023808
08000d50	58 4A			ldr r2,[0x08000eb4] ; REFS: READ->08000eb4
08000d52	43 F4 E0 53			orr r3,r3,#0x1c00 
08000d56	93 60			str r3,[r2,#0x8] ; REFS: WRITE->40023808
08000d58	7B 68			ldr r3,[r7,#0x4] ; REFS: READ->Stack[-0x14]
08000d5a	1B 68			ldr r3,[r3,#0x0] 
08000d5c	03 F0 08 03			and r3,r3,#0x8 
08000d60	00 2B			cmp r3,#0x0 
08000d62	05 D0			beq 0x08000d70 ; REFS: CONDITIONAL_JUMP->08000d70
08000d64	53 4B			ldr r3,[0x08000eb4] ; REFS: READ->08000eb4
08000d66	9B 68			ldr r3,[r3,#0x8] ; REFS: READ->40023808
08000d68	52 4A			ldr r2,[0x08000eb4] ; REFS: READ->08000eb4
08000d6a	43 F4 60 43			orr r3,r3,#0xe000 
08000d6e	93 60			str r3,[r2,#0x8] ; REFS: WRITE->40023808
08000d70	50 4B			ldr r3,[0x08000eb4] ; REFS: READ->08000eb4
08000d72	9B 68			ldr r3,[r3,#0x8] ; REFS: READ->40023808
08000d74	23 F0 F0 02			bic r2,r3,#0xf0 
08000d78	7B 68			ldr r3,[r7,#0x4] ; REFS: READ->Stack[-0x14]
08000d7a	9B 68			ldr r3,[r3,#0x8] 
08000d7c	4D 49			ldr r1,[0x08000eb4] ; REFS: READ->08000eb4
08000d7e	13 43			orrs r3,r2 
08000d80	8B 60			str r3,[r1,#0x8] ; REFS: WRITE->40023808
08000d82	7B 68			ldr r3,[r7,#0x4] ; REFS: READ->Stack[-0x14]
08000d84	1B 68			ldr r3,[r3,#0x0] 
08000d86	03 F0 01 03			and r3,r3,#0x1 
08000d8a	00 2B			cmp r3,#0x0 
08000d8c	44 D0			beq 0x08000e18 ; REFS: CONDITIONAL_JUMP->08000e18
08000d8e	7B 68			ldr r3,[r7,#0x4] ; REFS: READ->Stack[-0x14]
08000d90	5B 68			ldr r3,[r3,#0x4] 
08000d92	01 2B			cmp r3,#0x1 
08000d94	07 D1			bne 0x08000da6 ; REFS: CONDITIONAL_JUMP->08000da6
08000d96	47 4B			ldr r3,[0x08000eb4] ; REFS: READ->08000eb4
08000d98	1B 68			ldr r3,[r3,#0x0] ; REFS: READ->40023800
08000d9a	03 F4 00 33			and r3,r3,#0x20000 
08000d9e	00 2B			cmp r3,#0x0 
08000da0	19 D1			bne 0x08000dd6 ; REFS: CONDITIONAL_JUMP->08000dd6
08000da2	01 23			movs r3,#0x1 
08000da4	7F E0			b 0x08000ea6 ; REFS: UNCONDITIONAL_JUMP->08000ea6
08000da6	7B 68			ldr r3,[r7,#0x4] ; REFS: READ->Stack[-0x14]
08000da8	5B 68			ldr r3,[r3,#0x4] 
08000daa	02 2B			cmp r3,#0x2 
08000dac	03 D0			beq 0x08000db6 ; REFS: CONDITIONAL_JUMP->08000db6
08000dae	7B 68			ldr r3,[r7,#0x4] ; REFS: READ->Stack[-0x14]
08000db0	5B 68			ldr r3,[r3,#0x4] 
08000db2	03 2B			cmp r3,#0x3 
08000db4	07 D1			bne 0x08000dc6 ; REFS: CONDITIONAL_JUMP->08000dc6
08000db6	3F 4B			ldr r3,[0x08000eb4] ; REFS: READ->08000eb4
08000db8	1B 68			ldr r3,[r3,#0x0] ; REFS: READ->40023800
08000dba	03 F0 00 73			and r3,r3,#0x2000000 
08000dbe	00 2B			cmp r3,#0x0 
08000dc0	09 D1			bne 0x08000dd6 ; REFS: CONDITIONAL_JUMP->08000dd6
08000dc2	01 23			movs r3,#0x1 
08000dc4	6F E0			b 0x08000ea6 ; REFS: UNCONDITIONAL_JUMP->08000ea6
08000dc6	3B 4B			ldr r3,[0x08000eb4] ; REFS: READ->08000eb4
08000dc8	1B 68			ldr r3,[r3,#0x0] ; REFS: READ->40023800
08000dca	03 F0 02 03			and r3,r3,#0x2 
08000dce	00 2B			cmp r3,#0x0 
08000dd0	01 D1			bne 0x08000dd6 ; REFS: CONDITIONAL_JUMP->08000dd6
08000dd2	01 23			movs r3,#0x1 
08000dd4	67 E0			b 0x08000ea6 ; REFS: UNCONDITIONAL_JUMP->08000ea6
08000dd6	37 4B			ldr r3,[0x08000eb4] ; REFS: READ->08000eb4
08000dd8	9B 68			ldr r3,[r3,#0x8] ; REFS: READ->40023808
08000dda	23 F0 03 02			bic r2,r3,#0x3 
08000dde	7B 68			ldr r3,[r7,#0x4] ; REFS: READ->Stack[-0x14]
08000de0	5B 68			ldr r3,[r3,#0x4] 
08000de2	34 49			ldr r1,[0x08000eb4] ; REFS: READ->08000eb4, PARAM->40023800
08000de4	13 43			orrs r3,r2 
08000de6	8B 60			str r3,[r1,#0x8] ; REFS: WRITE->40023808
08000de8	FF F7 94 FE			bl 0x08000b14 ; REFS: UNCONDITIONAL_CALL->08000b14
08000dec	F8 60			str r0,[r7,#0xc] ; REFS: WRITE->Stack[-0xc]
08000dee	0A E0			b 0x08000e06 ; REFS: UNCONDITIONAL_JUMP->08000e06
08000df0	FF F7 90 FE			bl 0x08000b14 ; REFS: UNCONDITIONAL_CALL->08000b14
08000df4	02 46			mov r2,r0 
08000df6	FB 68			ldr r3,[r7,#0xc] ; REFS: READ->Stack[-0xc]
08000df8	D3 1A			subs r3,r2,r3 
08000dfa	41 F2 88 32			movw r2,#0x1388 
08000dfe	93 42			cmp r3,r2 
08000e00	01 D9			bls 0x08000e06 ; REFS: CONDITIONAL_JUMP->08000e06
08000e02	03 23			movs r3,#0x3 
08000e04	4F E0			b 0x08000ea6 ; REFS: UNCONDITIONAL_JUMP->08000ea6
08000e06	2B 4B			ldr r3,[0x08000eb4] ; REFS: READ->08000eb4
08000e08	9B 68			ldr r3,[r3,#0x8] ; REFS: READ->40023808
08000e0a	03 F0 0C 02			and r2,r3,#0xc 
08000e0e	7B 68			ldr r3,[r7,#0x4] ; REFS: READ->Stack[-0x14]
08000e10	5B 68			ldr r3,[r3,#0x4] 
08000e12	9B 00			lsls r3,r3,#0x2 
08000e14	9A 42			cmp r2,r3 
08000e16	EB D1			bne 0x08000df0 ; REFS: CONDITIONAL_JUMP->08000df0
08000e18	25 4B			ldr r3,[0x08000eb0] ; REFS: READ->08000eb0
08000e1a	1B 68			ldr r3,[r3,#0x0] ; REFS: READ->40023c00
08000e1c	03 F0 07 03			and r3,r3,#0x7 
08000e20	3A 68			ldr r2,[r7,#0x0] ; REFS: READ->Stack[-0x18]
08000e22	9A 42			cmp r2,r3 
08000e24	0C D2			bcs 0x08000e40 ; REFS: CONDITIONAL_JUMP->08000e40
08000e26	22 4B			ldr r3,[0x08000eb0] ; REFS: READ->08000eb0
08000e28	3A 68			ldr r2,[r7,#0x0] ; REFS: READ->Stack[-0x18]
08000e2a	D2 B2			uxtb r2,r2 
08000e2c	1A 70			strb r2,[r3,#0x0] ; REFS: WRITE->40023c00
08000e2e	20 4B			ldr r3,[0x08000eb0] ; REFS: READ->08000eb0
08000e30	1B 68			ldr r3,[r3,#0x0] ; REFS: READ->40023c00
08000e32	03 F0 07 03			and r3,r3,#0x7 
08000e36	3A 68			ldr r2,[r7,#0x0] ; REFS: READ->Stack[-0x18]
08000e38	9A 42			cmp r2,r3 
08000e3a	01 D0			beq 0x08000e40 ; REFS: CONDITIONAL_JUMP->08000e40
08000e3c	01 23			movs r3,#0x1 
08000e3e	32 E0			b 0x08000ea6 ; REFS: UNCONDITIONAL_JUMP->08000ea6
08000e40	7B 68			ldr r3,[r7,#0x4] ; REFS: READ->Stack[-0x14]
08000e42	1B 68			ldr r3,[r3,#0x0] 
08000e44	03 F0 04 03			and r3,r3,#0x4 
08000e48	00 2B			cmp r3,#0x0 
08000e4a	08 D0			beq 0x08000e5e ; REFS: CONDITIONAL_JUMP->08000e5e
08000e4c	19 4B			ldr r3,[0x08000eb4] ; REFS: READ->08000eb4
08000e4e	9B 68			ldr r3,[r3,#0x8] ; REFS: READ->40023808
08000e50	23 F4 E0 52			bic r2,r3,#0x1c00 
08000e54	7B 68			ldr r3,[r7,#0x4] ; REFS: READ->Stack[-0x14]
08000e56	DB 68			ldr r3,[r3,#0xc] 
08000e58	16 49			ldr r1,[0x08000eb4] ; REFS: READ->08000eb4, PARAM->40023800
08000e5a	13 43			orrs r3,r2 
08000e5c	8B 60			str r3,[r1,#0x8] ; REFS: WRITE->40023808
08000e5e	7B 68			ldr r3,[r7,#0x4] ; REFS: READ->Stack[-0x14]
08000e60	1B 68			ldr r3,[r3,#0x0] 
08000e62	03 F0 08 03			and r3,r3,#0x8 
08000e66	00 2B			cmp r3,#0x0 
08000e68	09 D0			beq 0x08000e7e ; REFS: CONDITIONAL_JUMP->08000e7e
08000e6a	12 4B			ldr r3,[0x08000eb4] ; REFS: READ->08000eb4
08000e6c	9B 68			ldr r3,[r3,#0x8] ; REFS: READ->40023808
08000e6e	23 F4 60 42			bic r2,r3,#0xe000 
08000e72	7B 68			ldr r3,[r7,#0x4] ; REFS: READ->Stack[-0x14]
08000e74	1B 69			ldr r3,[r3,#0x10] 
08000e76	DB 00			lsls r3,r3,#0x3 
08000e78	0E 49			ldr r1,[0x08000eb4] ; REFS: READ->08000eb4, PARAM->40023800
08000e7a	13 43			orrs r3,r2 
08000e7c	8B 60			str r3,[r1,#0x8] ; REFS: WRITE->40023808
08000e7e	00 F0 21 F8			bl 0x08000ec4 ; REFS: UNCONDITIONAL_CALL->08000ec4
08000e82	02 46			mov r2,r0 
08000e84	0B 4B			ldr r3,[0x08000eb4] ; REFS: READ->08000eb4
08000e86	9B 68			ldr r3,[r3,#0x8] ; REFS: READ->40023808
08000e88	1B 09			lsrs r3,r3,#0x4 
08000e8a	03 F0 0F 03			and r3,r3,#0xf 
08000e8e	0A 49			ldr r1,[0x08000eb8] ; REFS: READ->08000eb8, PARAM->08001608
08000e90	CB 5C			ldrb r3,[r1,r3] ; REFS: DATA->08001608
08000e92	22 FA 03 F3			lsr.w r3,r2,r3 
08000e96	09 4A			ldr r2,[0x08000ebc] ; REFS: READ->08000ebc, PARAM->20000000
08000e98	13 60			str r3,[r2,#0x0] ; REFS: WRITE->20000000
08000e9a	09 4B			ldr r3,[0x08000ec0] ; REFS: READ->08000ec0
08000e9c	1B 68			ldr r3,[r3,#0x0] ; REFS: READ->20000004
08000e9e	18 46			mov r0,r3 
08000ea0	FF F7 F4 FD			bl 0x08000a8c ; REFS: UNCONDITIONAL_CALL->08000a8c
08000ea4	00 23			movs r3,#0x0 
08000ea6	18 46			mov r0,r3 
08000ea8	10 37			adds r7,#0x10 
08000eaa	BD 46			mov sp,r7 
08000eac	80 BD			pop {r7,pc} 
08000eae	00		undefined	?? 00h 
08000eaf	BF		undefined	?? BFh 
08000eb0	00 3C 02 40		undefined4	undefined4 40023C00h 
08000eb4	00 38 02 40		undefined4	undefined4 40023800h 
08000eb8	08 16 00 08		undefined4	undefined4 08001608h 
08000ebc	00 00 00 20		undefined4	undefined4 20000000h 
08000ec0	04 00 00 20		undefined4	undefined4 20000004h 
08000ec4	2D E9 B0 4F	FUN_08000ec4		push {r4,r5,r7,r8,r9,r10,r11,lr} 
08000ec8	90 B0			sub sp,#0x40 
08000eca	00 AF			add r7,sp,#0x0 
08000ecc	00 23			movs r3,#0x0 
08000ece	7B 63			str r3,[r7,#0x34] ; REFS: WRITE->Stack[-0x2c]
08000ed0	00 23			movs r3,#0x0 
08000ed2	FB 63			str r3,[r7,#0x3c] ; REFS: WRITE->Stack[-0x24]
08000ed4	00 23			movs r3,#0x0 
08000ed6	3B 63			str r3,[r7,#0x30] ; REFS: WRITE->Stack[-0x30]
08000ed8	00 23			movs r3,#0x0 
08000eda	BB 63			str r3,[r7,#0x38] ; REFS: WRITE->Stack[-0x28]
08000edc	59 4B			ldr r3,[0x08001044] ; REFS: READ->08001044
08000ede	9B 68			ldr r3,[r3,#0x8] ; REFS: READ->40023808
08000ee0	03 F0 0C 03			and r3,r3,#0xc 
08000ee4	08 2B			cmp r3,#0x8 
08000ee6	0D D0			beq 0x08000f04 ; REFS: CONDITIONAL_JUMP->08000f04
08000ee8	08 2B			cmp r3,#0x8 
08000eea	00 F2 A1 80			bhi.w 0x08001030 ; REFS: CONDITIONAL_JUMP->08001030
08000eee	00 2B			cmp r3,#0x0 
08000ef0	02 D0			beq 0x08000ef8 ; REFS: CONDITIONAL_JUMP->08000ef8
08000ef2	04 2B			cmp r3,#0x4 
08000ef4	03 D0			beq 0x08000efe ; REFS: CONDITIONAL_JUMP->08000efe
08000ef6	9B E0			b 0x08001030 ; REFS: UNCONDITIONAL_JUMP->08001030
08000ef8	53 4B			ldr r3,[0x08001048] ; REFS: READ->08001048
08000efa	BB 63			str r3,[r7,#0x38] ; REFS: WRITE->Stack[-0x28]
08000efc	9B E0			b 0x08001036 ; REFS: UNCONDITIONAL_JUMP->08001036
08000efe	53 4B			ldr r3,[0x0800104c] ; REFS: READ->0800104c
08000f00	BB 63			str r3,[r7,#0x38] ; REFS: WRITE->Stack[-0x28]
08000f02	98 E0			b 0x08001036 ; REFS: UNCONDITIONAL_JUMP->08001036
08000f04	4F 4B			ldr r3,[0x08001044] ; REFS: READ->08001044
08000f06	5B 68			ldr r3,[r3,#0x4] ; REFS: READ->40023804
08000f08	03 F0 3F 03			and r3,r3,#0x3f 
08000f0c	7B 63			str r3,[r7,#0x34] ; REFS: WRITE->Stack[-0x2c]
08000f0e	4D 4B			ldr r3,[0x08001044] ; REFS: READ->08001044
08000f10	5B 68			ldr r3,[r3,#0x4] ; REFS: READ->40023804
08000f12	03 F4 80 03			and r3,r3,#0x400000 
08000f16	00 2B			cmp r3,#0x0 
08000f18	28 D0			beq 0x08000f6c ; REFS: CONDITIONAL_JUMP->08000f6c
08000f1a	4A 4B			ldr r3,[0x08001044] ; REFS: READ->08001044
08000f1c	5B 68			ldr r3,[r3,#0x4] ; REFS: READ->40023804
08000f1e	9B 09			lsrs r3,r3,#0x6 
08000f20	00 22			movs r2,#0x0 
08000f22	3B 62			str r3,[r7,#0x20] ; REFS: WRITE->Stack[-0x40]
08000f24	7A 62			str r2,[r7,#0x24] ; REFS: WRITE->Stack[-0x3c]
08000f26	3B 6A			ldr r3,[r7,#0x20] ; REFS: READ->Stack[-0x40]
08000f28	C3 F3 08 00			ubfx r0,r3,#0x0,#0x9 
08000f2c	00 21			movs r1,#0x0 
08000f2e	47 4B			ldr r3,[0x0800104c] ; REFS: READ->0800104c
08000f30	03 FB 01 F2			mul r2,r3,r1 
08000f34	00 23			movs r3,#0x0 
08000f36	00 FB 03 F3			mul r3,r0,r3 
08000f3a	13 44			add r3,r2 
08000f3c	43 4A			ldr r2,[0x0800104c] ; REFS: READ->0800104c
08000f3e	A0 FB 02 12			umull r1,r2,r0,r2 
08000f42	FA 62			str r2,[r7,#0x2c] ; REFS: WRITE->Stack[-0x34]
08000f44	0A 46			mov r2,r1 
08000f46	BA 62			str r2,[r7,#0x28] ; REFS: WRITE->Stack[-0x38]
08000f48	FA 6A			ldr r2,[r7,#0x2c] ; REFS: READ->Stack[-0x34]
08000f4a	13 44			add r3,r2 
08000f4c	FB 62			str r3,[r7,#0x2c] ; REFS: WRITE->Stack[-0x34]
08000f4e	7B 6B			ldr r3,[r7,#0x34] ; REFS: READ->Stack[-0x2c]
08000f50	00 22			movs r2,#0x0 
08000f52	BB 61			str r3,[r7,#0x18] ; REFS: WRITE->Stack[-0x48]
08000f54	FA 61			str r2,[r7,#0x1c] ; REFS: WRITE->Stack[-0x44]
08000f56	D7 E9 06 23			ldrd r2,r3,[r7,#0x18] ; REFS: READ->Stack[-0x48]
08000f5a	D7 E9 0A 01			ldrd r0,r1,[r7,#0x28] ; REFS: READ->Stack[-0x38]
08000f5e	FF F7 5B F9			bl 0x08000218 ; REFS: UNCONDITIONAL_CALL->08000218
08000f62	02 46			mov r2,r0 
08000f64	0B 46			mov r3,r1 
08000f66	13 46			mov r3,r2 
08000f68	FB 63			str r3,[r7,#0x3c] ; REFS: WRITE->Stack[-0x24]
08000f6a	53 E0			b 0x08001014 ; REFS: UNCONDITIONAL_JUMP->08001014
08000f6c	35 4B			ldr r3,[0x08001044] ; REFS: READ->08001044
08000f6e	5B 68			ldr r3,[r3,#0x4] ; REFS: READ->40023804
08000f70	9B 09			lsrs r3,r3,#0x6 
08000f72	00 22			movs r2,#0x0 
08000f74	3B 61			str r3,[r7,#0x10] ; REFS: WRITE->Stack[-0x50]
08000f76	7A 61			str r2,[r7,#0x14] ; REFS: WRITE->Stack[-0x4c]
08000f78	3B 69			ldr r3,[r7,#0x10] ; REFS: READ->Stack[-0x50]
08000f7a	C3 F3 08 0A			ubfx r10,r3,#0x0,#0x9 
08000f7e	4F F0 00 0B			mov.w r11,#0x0 
08000f82	52 46			mov r2,r10 
08000f84	5B 46			mov r3,r11 
08000f86	4F F0 00 00			mov.w r0,#0x0 
08000f8a	4F F0 00 01			mov.w r1,#0x0 
08000f8e	59 01			lsls r1,r3,#0x5 
08000f90	41 EA D2 61			orr.w r1,r1,r2, lsr #0x1b 
08000f94	50 01			lsls r0,r2,#0x5 
08000f96	02 46			mov r2,r0 
08000f98	0B 46			mov r3,r1 
08000f9a	B2 EB 0A 08			subs.w r8,r2,r10 
08000f9e	63 EB 0B 09			sbc.w r9,r3,r11 
08000fa2	4F F0 00 02			mov.w r2,#0x0 
08000fa6	4F F0 00 03			mov.w r3,#0x0 
08000faa	4F EA 89 13			lsl.w r3,r9,#0x6 
08000fae	43 EA 98 63			orr.w r3,r3,r8, lsr #0x1a 
08000fb2	4F EA 88 12			lsl.w r2,r8,#0x6 
08000fb6	B2 EB 08 04			subs.w r4,r2,r8 
08000fba	63 EB 09 05			sbc.w r5,r3,r9 
08000fbe	4F F0 00 02			mov.w r2,#0x0 
08000fc2	4F F0 00 03			mov.w r3,#0x0 
08000fc6	EB 00			lsls r3,r5,#0x3 
08000fc8	43 EA 54 73			orr.w r3,r3,r4, lsr #0x1d 
08000fcc	E2 00			lsls r2,r4,#0x3 
08000fce	14 46			mov r4,r2 
08000fd0	1D 46			mov r5,r3 
08000fd2	14 EB 0A 03			adds.w r3,r4,r10 
08000fd6	3B 60			str r3,[r7,#0x0] ; REFS: WRITE->Stack[-0x60]
08000fd8	45 EB 0B 03			adc.w r3,r5,r11 
08000fdc	7B 60			str r3,[r7,#0x4] ; REFS: WRITE->Stack[-0x5c]
08000fde	4F F0 00 02			mov.w r2,#0x0 
08000fe2	4F F0 00 03			mov.w r3,#0x0 
08000fe6	D7 E9 00 45			ldrd r4,r5,[r7,#0x0] ; REFS: READ->Stack[-0x60]
08000fea	29 46			mov r1,r5 
08000fec	8B 02			lsls r3,r1,#0xa 
08000fee	21 46			mov r1,r4 
08000ff0	43 EA 91 53			orr.w r3,r3,r1, lsr #0x16 
08000ff4	21 46			mov r1,r4 
08000ff6	8A 02			lsls r2,r1,#0xa 
08000ff8	10 46			mov r0,r2 
08000ffa	19 46			mov r1,r3 
08000ffc	7B 6B			ldr r3,[r7,#0x34] ; REFS: READ->Stack[-0x2c]
08000ffe	00 22			movs r2,#0x0 
08001000	BB 60			str r3,[r7,#0x8] ; REFS: WRITE->Stack[-0x58]
08001002	FA 60			str r2,[r7,#0xc] ; REFS: WRITE->Stack[-0x54]
08001004	D7 E9 02 23			ldrd r2,r3,[r7,#0x8] ; REFS: READ->Stack[-0x58]
08001008	FF F7 06 F9			bl 0x08000218 ; REFS: UNCONDITIONAL_CALL->08000218
0800100c	02 46			mov r2,r0 
0800100e	0B 46			mov r3,r1 
08001010	13 46			mov r3,r2 
08001012	FB 63			str r3,[r7,#0x3c] ; REFS: WRITE->Stack[-0x24]
08001014	0B 4B			ldr r3,[0x08001044] ; REFS: READ->08001044
08001016	5B 68			ldr r3,[r3,#0x4] ; REFS: READ->40023804
08001018	1B 0C			lsrs r3,r3,#0x10 
0800101a	03 F0 03 03			and r3,r3,#0x3 
0800101e	01 33			adds r3,#0x1 
08001020	5B 00			lsls r3,r3,#0x1 
08001022	3B 63			str r3,[r7,#0x30] ; REFS: WRITE->Stack[-0x30]
08001024	FA 6B			ldr r2,[r7,#0x3c] ; REFS: READ->Stack[-0x24]
08001026	3B 6B			ldr r3,[r7,#0x30] ; REFS: READ->Stack[-0x30]
08001028	B2 FB F3 F3			udiv r3,r2,r3 
0800102c	BB 63			str r3,[r7,#0x38] ; REFS: WRITE->Stack[-0x28]
0800102e	02 E0			b 0x08001036 ; REFS: UNCONDITIONAL_JUMP->08001036
08001030	05 4B			ldr r3,[0x08001048] ; REFS: READ->08001048
08001032	BB 63			str r3,[r7,#0x38] ; REFS: WRITE->Stack[-0x28]
08001034	00 BF			nop 
08001036	BB 6B			ldr r3,[r7,#0x38] ; REFS: READ->Stack[-0x28]
08001038	18 46			mov r0,r3 
0800103a	40 37			adds r7,#0x40 
0800103c	BD 46			mov sp,r7 
0800103e	BD E8 B0 8F			pop.w {r4,r5,r7,r8,r9,r10,r11,pc} 
08001042	00		undefined	?? 00h 
08001043	BF		undefined	?? BFh 
08001044	00 38 02 40		undefined4	undefined4 40023800h 
08001048	00 24 F4 00		undefined4	undefined4 00F42400h 
0800104c	40 78 7D 01		undefined4	undefined4 017D7840h 
08001050	80 B5	FUN_08001050		push {r7,lr} 
08001052	86 B0			sub sp,#0x18 
08001054	00 AF			add r7,sp,#0x0 
08001056	78 60			str r0,[r7,#0x4] ; REFS: WRITE->Stack[-0x1c]
08001058	7B 68			ldr r3,[r7,#0x4] ; REFS: READ->Stack[-0x1c]
0800105a	00 2B			cmp r3,#0x0 
0800105c	01 D1			bne 0x08001062 ; REFS: CONDITIONAL_JUMP->08001062
0800105e	01 23			movs r3,#0x1 
08001060	73 E2			b 0x0800154a ; REFS: UNCONDITIONAL_JUMP->0800154a
08001062	7B 68			ldr r3,[r7,#0x4] ; REFS: READ->Stack[-0x1c]
08001064	1B 68			ldr r3,[r3,#0x0] 
08001066	03 F0 01 03			and r3,r3,#0x1 
0800106a	00 2B			cmp r3,#0x0 
0800106c	75 D0			beq 0x0800115a ; REFS: CONDITIONAL_JUMP->0800115a
0800106e	88 4B			ldr r3,[0x08001290] ; REFS: READ->08001290
08001070	9B 68			ldr r3,[r3,#0x8] ; REFS: READ->40023808
08001072	03 F0 0C 03			and r3,r3,#0xc 
08001076	04 2B			cmp r3,#0x4 
08001078	0C D0			beq 0x08001094 ; REFS: CONDITIONAL_JUMP->08001094
0800107a	85 4B			ldr r3,[0x08001290] ; REFS: READ->08001290
0800107c	9B 68			ldr r3,[r3,#0x8] ; REFS: READ->40023808
0800107e	03 F0 0C 03			and r3,r3,#0xc 
08001082	08 2B			cmp r3,#0x8 
08001084	12 D1			bne 0x080010ac ; REFS: CONDITIONAL_JUMP->080010ac
08001086	82 4B			ldr r3,[0x08001290] ; REFS: READ->08001290
08001088	5B 68			ldr r3,[r3,#0x4] ; REFS: READ->40023804
0800108a	03 F4 80 03			and r3,r3,#0x400000 
0800108e	B3 F5 80 0F			cmp.w r3,#0x400000 
08001092	0B D1			bne 0x080010ac ; REFS: CONDITIONAL_JUMP->080010ac
08001094	7E 4B			ldr r3,[0x08001290] ; REFS: READ->08001290
08001096	1B 68			ldr r3,[r3,#0x0] ; REFS: READ->40023800
08001098	03 F4 00 33			and r3,r3,#0x20000 
0800109c	00 2B			cmp r3,#0x0 
0800109e	5B D0			beq 0x08001158 ; REFS: CONDITIONAL_JUMP->08001158
080010a0	7B 68			ldr r3,[r7,#0x4] ; REFS: READ->Stack[-0x1c]
080010a2	5B 68			ldr r3,[r3,#0x4] 
080010a4	00 2B			cmp r3,#0x0 
080010a6	57 D1			bne 0x08001158 ; REFS: CONDITIONAL_JUMP->08001158
080010a8	01 23			movs r3,#0x1 
080010aa	4E E2			b 0x0800154a ; REFS: UNCONDITIONAL_JUMP->0800154a
080010ac	7B 68			ldr r3,[r7,#0x4] ; REFS: READ->Stack[-0x1c]
080010ae	5B 68			ldr r3,[r3,#0x4] 
080010b0	B3 F5 80 3F			cmp.w r3,#0x10000 
080010b4	06 D1			bne 0x080010c4 ; REFS: CONDITIONAL_JUMP->080010c4
080010b6	76 4B			ldr r3,[0x08001290] ; REFS: READ->08001290
080010b8	1B 68			ldr r3,[r3,#0x0] ; REFS: READ->40023800
080010ba	75 4A			ldr r2,[0x08001290] ; REFS: READ->08001290, PARAM->40023800
080010bc	43 F4 80 33			orr r3,r3,#0x10000 
080010c0	13 60			str r3,[r2,#0x0] ; REFS: WRITE->40023800
080010c2	1D E0			b 0x08001100 ; REFS: UNCONDITIONAL_JUMP->08001100
080010c4	7B 68			ldr r3,[r7,#0x4] ; REFS: READ->Stack[-0x1c]
080010c6	5B 68			ldr r3,[r3,#0x4] 
080010c8	B3 F5 A0 2F			cmp.w r3,#0x50000 
080010cc	0C D1			bne 0x080010e8 ; REFS: CONDITIONAL_JUMP->080010e8
080010ce	70 4B			ldr r3,[0x08001290] ; REFS: READ->08001290
080010d0	1B 68			ldr r3,[r3,#0x0] ; REFS: READ->40023800
080010d2	6F 4A			ldr r2,[0x08001290] ; REFS: READ->08001290
080010d4	43 F4 80 23			orr r3,r3,#0x40000 
080010d8	13 60			str r3,[r2,#0x0] ; REFS: WRITE->40023800
080010da	6D 4B			ldr r3,[0x08001290] ; REFS: READ->08001290
080010dc	1B 68			ldr r3,[r3,#0x0] ; REFS: READ->40023800
080010de	6C 4A			ldr r2,[0x08001290] ; REFS: READ->08001290, PARAM->40023800
080010e0	43 F4 80 33			orr r3,r3,#0x10000 
080010e4	13 60			str r3,[r2,#0x0] ; REFS: WRITE->40023800
080010e6	0B E0			b 0x08001100 ; REFS: UNCONDITIONAL_JUMP->08001100
080010e8	69 4B			ldr r3,[0x08001290] ; REFS: READ->08001290
080010ea	1B 68			ldr r3,[r3,#0x0] ; REFS: READ->40023800
080010ec	68 4A			ldr r2,[0x08001290] ; REFS: READ->08001290
080010ee	23 F4 80 33			bic r3,r3,#0x10000 
080010f2	13 60			str r3,[r2,#0x0] ; REFS: WRITE->40023800
080010f4	66 4B			ldr r3,[0x08001290] ; REFS: READ->08001290
080010f6	1B 68			ldr r3,[r3,#0x0] ; REFS: READ->40023800
080010f8	65 4A			ldr r2,[0x08001290] ; REFS: READ->08001290, PARAM->40023800
080010fa	23 F4 80 23			bic r3,r3,#0x40000 
080010fe	13 60			str r3,[r2,#0x0] ; REFS: WRITE->40023800
08001100	7B 68			ldr r3,[r7,#0x4] ; REFS: READ->Stack[-0x1c]
08001102	5B 68			ldr r3,[r3,#0x4] 
08001104	00 2B			cmp r3,#0x0 
08001106	13 D0			beq 0x08001130 ; REFS: CONDITIONAL_JUMP->08001130
08001108	FF F7 04 FD			bl 0x08000b14 ; REFS: UNCONDITIONAL_CALL->08000b14
0800110c	38 61			str r0,[r7,#0x10] ; REFS: WRITE->Stack[-0x10]
0800110e	08 E0			b 0x08001122 ; REFS: UNCONDITIONAL_JUMP->08001122
08001110	FF F7 00 FD			bl 0x08000b14 ; REFS: UNCONDITIONAL_CALL->08000b14
08001114	02 46			mov r2,r0 
08001116	3B 69			ldr r3,[r7,#0x10] ; REFS: READ->Stack[-0x10]
08001118	D3 1A			subs r3,r2,r3 
0800111a	64 2B			cmp r3,#0x64 
0800111c	01 D9			bls 0x08001122 ; REFS: CONDITIONAL_JUMP->08001122
0800111e	03 23			movs r3,#0x3 
08001120	13 E2			b 0x0800154a ; REFS: UNCONDITIONAL_JUMP->0800154a
08001122	5B 4B			ldr r3,[0x08001290] ; REFS: READ->08001290
08001124	1B 68			ldr r3,[r3,#0x0] ; REFS: READ->40023800
08001126	03 F4 00 33			and r3,r3,#0x20000 
0800112a	00 2B			cmp r3,#0x0 
0800112c	F0 D0			beq 0x08001110 ; REFS: CONDITIONAL_JUMP->08001110
0800112e	14 E0			b 0x0800115a ; REFS: UNCONDITIONAL_JUMP->0800115a
08001130	FF F7 F0 FC			bl 0x08000b14 ; REFS: UNCONDITIONAL_CALL->08000b14
08001134	38 61			str r0,[r7,#0x10] ; REFS: WRITE->Stack[-0x10]
08001136	08 E0			b 0x0800114a ; REFS: UNCONDITIONAL_JUMP->0800114a
08001138	FF F7 EC FC			bl 0x08000b14 ; REFS: UNCONDITIONAL_CALL->08000b14
0800113c	02 46			mov r2,r0 
0800113e	3B 69			ldr r3,[r7,#0x10] ; REFS: READ->Stack[-0x10]
08001140	D3 1A			subs r3,r2,r3 
08001142	64 2B			cmp r3,#0x64 
08001144	01 D9			bls 0x0800114a ; REFS: CONDITIONAL_JUMP->0800114a
08001146	03 23			movs r3,#0x3 
08001148	FF E1			b 0x0800154a ; REFS: UNCONDITIONAL_JUMP->0800154a
0800114a	51 4B			ldr r3,[0x08001290] ; REFS: READ->08001290
0800114c	1B 68			ldr r3,[r3,#0x0] ; REFS: READ->40023800
0800114e	03 F4 00 33			and r3,r3,#0x20000 
08001152	00 2B			cmp r3,#0x0 
08001154	F0 D1			bne 0x08001138 ; REFS: CONDITIONAL_JUMP->08001138
08001156	00 E0			b 0x0800115a ; REFS: UNCONDITIONAL_JUMP->0800115a
08001158	00 BF			nop 
0800115a	7B 68			ldr r3,[r7,#0x4] ; REFS: READ->Stack[-0x1c]
0800115c	1B 68			ldr r3,[r3,#0x0] 
0800115e	03 F0 02 03			and r3,r3,#0x2 
08001162	00 2B			cmp r3,#0x0 
08001164	63 D0			beq 0x0800122e ; REFS: CONDITIONAL_JUMP->0800122e
08001166	4A 4B			ldr r3,[0x08001290] ; REFS: READ->08001290
08001168	9B 68			ldr r3,[r3,#0x8] ; REFS: READ->40023808
0800116a	03 F0 0C 03			and r3,r3,#0xc 
0800116e	00 2B			cmp r3,#0x0 
08001170	0B D0			beq 0x0800118a ; REFS: CONDITIONAL_JUMP->0800118a
08001172	47 4B			ldr r3,[0x08001290] ; REFS: READ->08001290
08001174	9B 68			ldr r3,[r3,#0x8] ; REFS: READ->40023808
08001176	03 F0 0C 03			and r3,r3,#0xc 
0800117a	08 2B			cmp r3,#0x8 
0800117c	1C D1			bne 0x080011b8 ; REFS: CONDITIONAL_JUMP->080011b8
0800117e	44 4B			ldr r3,[0x08001290] ; REFS: READ->08001290
08001180	5B 68			ldr r3,[r3,#0x4] ; REFS: READ->40023804
08001182	03 F4 80 03			and r3,r3,#0x400000 
08001186	00 2B			cmp r3,#0x0 
08001188	16 D1			bne 0x080011b8 ; REFS: CONDITIONAL_JUMP->080011b8
0800118a	41 4B			ldr r3,[0x08001290] ; REFS: READ->08001290
0800118c	1B 68			ldr r3,[r3,#0x0] ; REFS: READ->40023800
0800118e	03 F0 02 03			and r3,r3,#0x2 
08001192	00 2B			cmp r3,#0x0 
08001194	05 D0			beq 0x080011a2 ; REFS: CONDITIONAL_JUMP->080011a2
08001196	7B 68			ldr r3,[r7,#0x4] ; REFS: READ->Stack[-0x1c]
08001198	DB 68			ldr r3,[r3,#0xc] 
0800119a	01 2B			cmp r3,#0x1 
0800119c	01 D0			beq 0x080011a2 ; REFS: CONDITIONAL_JUMP->080011a2
0800119e	01 23			movs r3,#0x1 
080011a0	D3 E1			b 0x0800154a ; REFS: UNCONDITIONAL_JUMP->0800154a
080011a2	3B 4B			ldr r3,[0x08001290] ; REFS: READ->08001290
080011a4	1B 68			ldr r3,[r3,#0x0] ; REFS: READ->40023800
080011a6	23 F0 F8 02			bic r2,r3,#0xf8 
080011aa	7B 68			ldr r3,[r7,#0x4] ; REFS: READ->Stack[-0x1c]
080011ac	1B 69			ldr r3,[r3,#0x10] 
080011ae	DB 00			lsls r3,r3,#0x3 
080011b0	37 49			ldr r1,[0x08001290] ; REFS: READ->08001290, PARAM->40023800
080011b2	13 43			orrs r3,r2 
080011b4	0B 60			str r3,[r1,#0x0] ; REFS: WRITE->40023800
080011b6	3A E0			b 0x0800122e ; REFS: UNCONDITIONAL_JUMP->0800122e
080011b8	7B 68			ldr r3,[r7,#0x4] ; REFS: READ->Stack[-0x1c]
080011ba	DB 68			ldr r3,[r3,#0xc] 
080011bc	00 2B			cmp r3,#0x0 
080011be	20 D0			beq 0x08001202 ; REFS: CONDITIONAL_JUMP->08001202
080011c0	34 4B			ldr r3,[0x08001294] ; REFS: READ->08001294, PARAM->42470000
080011c2	01 22			movs r2,#0x1 
080011c4	1A 60			str r2,[r3,#0x0] ; REFS: WRITE->42470000
080011c6	FF F7 A5 FC			bl 0x08000b14 ; REFS: UNCONDITIONAL_CALL->08000b14
080011ca	38 61			str r0,[r7,#0x10] ; REFS: WRITE->Stack[-0x10]
080011cc	08 E0			b 0x080011e0 ; REFS: UNCONDITIONAL_JUMP->080011e0
080011ce	FF F7 A1 FC			bl 0x08000b14 ; REFS: UNCONDITIONAL_CALL->08000b14
080011d2	02 46			mov r2,r0 
080011d4	3B 69			ldr r3,[r7,#0x10] ; REFS: READ->Stack[-0x10]
080011d6	D3 1A			subs r3,r2,r3 
080011d8	02 2B			cmp r3,#0x2 
080011da	01 D9			bls 0x080011e0 ; REFS: CONDITIONAL_JUMP->080011e0
080011dc	03 23			movs r3,#0x3 
080011de	B4 E1			b 0x0800154a ; REFS: UNCONDITIONAL_JUMP->0800154a
080011e0	2B 4B			ldr r3,[0x08001290] ; REFS: READ->08001290
080011e2	1B 68			ldr r3,[r3,#0x0] ; REFS: READ->40023800
080011e4	03 F0 02 03			and r3,r3,#0x2 
080011e8	00 2B			cmp r3,#0x0 
080011ea	F0 D0			beq 0x080011ce ; REFS: CONDITIONAL_JUMP->080011ce
080011ec	28 4B			ldr r3,[0x08001290] ; REFS: READ->08001290
080011ee	1B 68			ldr r3,[r3,#0x0] ; REFS: READ->40023800
080011f0	23 F0 F8 02			bic r2,r3,#0xf8 
080011f4	7B 68			ldr r3,[r7,#0x4] ; REFS: READ->Stack[-0x1c]
080011f6	1B 69			ldr r3,[r3,#0x10] 
080011f8	DB 00			lsls r3,r3,#0x3 
080011fa	25 49			ldr r1,[0x08001290] ; REFS: READ->08001290, PARAM->40023800
080011fc	13 43			orrs r3,r2 
080011fe	0B 60			str r3,[r1,#0x0] ; REFS: WRITE->40023800
08001200	15 E0			b 0x0800122e ; REFS: UNCONDITIONAL_JUMP->0800122e
08001202	24 4B			ldr r3,[0x08001294] ; REFS: READ->08001294, PARAM->42470000
08001204	00 22			movs r2,#0x0 
08001206	1A 60			str r2,[r3,#0x0] ; REFS: WRITE->42470000
08001208	FF F7 84 FC			bl 0x08000b14 ; REFS: UNCONDITIONAL_CALL->08000b14
0800120c	38 61			str r0,[r7,#0x10] ; REFS: WRITE->Stack[-0x10]
0800120e	08 E0			b 0x08001222 ; REFS: UNCONDITIONAL_JUMP->08001222
08001210	FF F7 80 FC			bl 0x08000b14 ; REFS: UNCONDITIONAL_CALL->08000b14
08001214	02 46			mov r2,r0 
08001216	3B 69			ldr r3,[r7,#0x10] ; REFS: READ->Stack[-0x10]
08001218	D3 1A			subs r3,r2,r3 
0800121a	02 2B			cmp r3,#0x2 
0800121c	01 D9			bls 0x08001222 ; REFS: CONDITIONAL_JUMP->08001222
0800121e	03 23			movs r3,#0x3 
08001220	93 E1			b 0x0800154a ; REFS: UNCONDITIONAL_JUMP->0800154a
08001222	1B 4B			ldr r3,[0x08001290] ; REFS: READ->08001290
08001224	1B 68			ldr r3,[r3,#0x0] ; REFS: READ->40023800
08001226	03 F0 02 03			and r3,r3,#0x2 
0800122a	00 2B			cmp r3,#0x0 
0800122c	F0 D1			bne 0x08001210 ; REFS: CONDITIONAL_JUMP->08001210
0800122e	7B 68			ldr r3,[r7,#0x4] ; REFS: READ->Stack[-0x1c]
08001230	1B 68			ldr r3,[r3,#0x0] 
08001232	03 F0 08 03			and r3,r3,#0x8 
08001236	00 2B			cmp r3,#0x0 
08001238	36 D0			beq 0x080012a8 ; REFS: CONDITIONAL_JUMP->080012a8
0800123a	7B 68			ldr r3,[r7,#0x4] ; REFS: READ->Stack[-0x1c]
0800123c	5B 69			ldr r3,[r3,#0x14] 
0800123e	00 2B			cmp r3,#0x0 
08001240	16 D0			beq 0x08001270 ; REFS: CONDITIONAL_JUMP->08001270
08001242	15 4B			ldr r3,[0x08001298] ; REFS: READ->08001298, PARAM->42470e80
08001244	01 22			movs r2,#0x1 
08001246	1A 60			str r2,[r3,#0x0] ; REFS: WRITE->42470e80
08001248	FF F7 64 FC			bl 0x08000b14 ; REFS: UNCONDITIONAL_CALL->08000b14
0800124c	38 61			str r0,[r7,#0x10] ; REFS: WRITE->Stack[-0x10]
0800124e	08 E0			b 0x08001262 ; REFS: UNCONDITIONAL_JUMP->08001262
08001250	FF F7 60 FC			bl 0x08000b14 ; REFS: UNCONDITIONAL_CALL->08000b14
08001254	02 46			mov r2,r0 
08001256	3B 69			ldr r3,[r7,#0x10] ; REFS: READ->Stack[-0x10]
08001258	D3 1A			subs r3,r2,r3 
0800125a	02 2B			cmp r3,#0x2 
0800125c	01 D9			bls 0x08001262 ; REFS: CONDITIONAL_JUMP->08001262
0800125e	03 23			movs r3,#0x3 
08001260	73 E1			b 0x0800154a ; REFS: UNCONDITIONAL_JUMP->0800154a
08001262	0B 4B			ldr r3,[0x08001290] ; REFS: READ->08001290
08001264	5B 6F			ldr r3,[r3,#0x74] ; REFS: READ->40023874
08001266	03 F0 02 03			and r3,r3,#0x2 
0800126a	00 2B			cmp r3,#0x0 
0800126c	F0 D0			beq 0x08001250 ; REFS: CONDITIONAL_JUMP->08001250
0800126e	1B E0			b 0x080012a8 ; REFS: UNCONDITIONAL_JUMP->080012a8
08001270	09 4B			ldr r3,[0x08001298] ; REFS: READ->08001298, PARAM->42470e80
08001272	00 22			movs r2,#0x0 
08001274	1A 60			str r2,[r3,#0x0] ; REFS: WRITE->42470e80
08001276	FF F7 4D FC			bl 0x08000b14 ; REFS: UNCONDITIONAL_CALL->08000b14
0800127a	38 61			str r0,[r7,#0x10] ; REFS: WRITE->Stack[-0x10]
0800127c	0E E0			b 0x0800129c ; REFS: UNCONDITIONAL_JUMP->0800129c
0800127e	FF F7 49 FC			bl 0x08000b14 ; REFS: UNCONDITIONAL_CALL->08000b14
08001282	02 46			mov r2,r0 
08001284	3B 69			ldr r3,[r7,#0x10] ; REFS: READ->Stack[-0x10]
08001286	D3 1A			subs r3,r2,r3 
08001288	02 2B			cmp r3,#0x2 
0800128a	07 D9			bls 0x0800129c ; REFS: CONDITIONAL_JUMP->0800129c
0800128c	03 23			movs r3,#0x3 
0800128e	5C E1			b 0x0800154a ; REFS: UNCONDITIONAL_JUMP->0800154a
08001290	00 38 02 40		undefined4	undefined4 40023800h 
08001294	00 00 47 42		undefined4	undefined4 42470000h 
08001298	80 0E 47 42		undefined4	undefined4 42470E80h 
0800129c	8A 4B			ldr r3,[0x080014c8] ; REFS: READ->080014c8
0800129e	5B 6F			ldr r3,[r3,#0x74] ; REFS: READ->40023874
080012a0	03 F0 02 03			and r3,r3,#0x2 
080012a4	00 2B			cmp r3,#0x0 
080012a6	EA D1			bne 0x0800127e ; REFS: CONDITIONAL_JUMP->0800127e
080012a8	7B 68			ldr r3,[r7,#0x4] ; REFS: READ->Stack[-0x1c]
080012aa	1B 68			ldr r3,[r3,#0x0] 
080012ac	03 F0 04 03			and r3,r3,#0x4 
080012b0	00 2B			cmp r3,#0x0 
080012b2	00 F0 97 80			beq.w 0x080013e4 ; REFS: CONDITIONAL_JUMP->080013e4
080012b6	00 23			movs r3,#0x0 
080012b8	FB 75			strb r3,[r7,#0x17] ; REFS: WRITE->Stack[-0x9]
080012ba	83 4B			ldr r3,[0x080014c8] ; REFS: READ->080014c8
080012bc	1B 6C			ldr r3,[r3,#0x40] ; REFS: READ->40023840
080012be	03 F0 80 53			and r3,r3,#0x10000000 
080012c2	00 2B			cmp r3,#0x0 
080012c4	0F D1			bne 0x080012e6 ; REFS: CONDITIONAL_JUMP->080012e6
080012c6	00 23			movs r3,#0x0 
080012c8	BB 60			str r3,[r7,#0x8] ; REFS: WRITE->Stack[-0x18]
080012ca	7F 4B			ldr r3,[0x080014c8] ; REFS: READ->080014c8
080012cc	1B 6C			ldr r3,[r3,#0x40] ; REFS: READ->40023840
080012ce	7E 4A			ldr r2,[0x080014c8] ; REFS: READ->080014c8
080012d0	43 F0 80 53			orr r3,r3,#0x10000000 
080012d4	13 64			str r3,[r2,#0x40] ; REFS: WRITE->40023840
080012d6	7C 4B			ldr r3,[0x080014c8] ; REFS: READ->080014c8
080012d8	1B 6C			ldr r3,[r3,#0x40] ; REFS: READ->40023840
080012da	03 F0 80 53			and r3,r3,#0x10000000 
080012de	BB 60			str r3,[r7,#0x8] ; REFS: WRITE->Stack[-0x18]
080012e0	BB 68			ldr r3,[r7,#0x8] ; REFS: READ->Stack[-0x18]
080012e2	01 23			movs r3,#0x1 
080012e4	FB 75			strb r3,[r7,#0x17] ; REFS: WRITE->Stack[-0x9]
080012e6	79 4B			ldr r3,[0x080014cc] ; REFS: READ->080014cc
080012e8	1B 68			ldr r3,[r3,#0x0] ; REFS: READ->40007000
080012ea	03 F4 80 73			and r3,r3,#0x100 
080012ee	00 2B			cmp r3,#0x0 
080012f0	18 D1			bne 0x08001324 ; REFS: CONDITIONAL_JUMP->08001324
080012f2	76 4B			ldr r3,[0x080014cc] ; REFS: READ->080014cc
080012f4	1B 68			ldr r3,[r3,#0x0] ; REFS: READ->40007000
080012f6	75 4A			ldr r2,[0x080014cc] ; REFS: READ->080014cc, PARAM->40007000
080012f8	43 F4 80 73			orr r3,r3,#0x100 
080012fc	13 60			str r3,[r2,#0x0] ; REFS: WRITE->40007000
080012fe	FF F7 09 FC			bl 0x08000b14 ; REFS: UNCONDITIONAL_CALL->08000b14
08001302	38 61			str r0,[r7,#0x10] ; REFS: WRITE->Stack[-0x10]
08001304	08 E0			b 0x08001318 ; REFS: UNCONDITIONAL_JUMP->08001318
08001306	FF F7 05 FC			bl 0x08000b14 ; REFS: UNCONDITIONAL_CALL->08000b14
0800130a	02 46			mov r2,r0 
0800130c	3B 69			ldr r3,[r7,#0x10] ; REFS: READ->Stack[-0x10]
0800130e	D3 1A			subs r3,r2,r3 
08001310	02 2B			cmp r3,#0x2 
08001312	01 D9			bls 0x08001318 ; REFS: CONDITIONAL_JUMP->08001318
08001314	03 23			movs r3,#0x3 
08001316	18 E1			b 0x0800154a ; REFS: UNCONDITIONAL_JUMP->0800154a
08001318	6C 4B			ldr r3,[0x080014cc] ; REFS: READ->080014cc
0800131a	1B 68			ldr r3,[r3,#0x0] ; REFS: READ->40007000
0800131c	03 F4 80 73			and r3,r3,#0x100 
08001320	00 2B			cmp r3,#0x0 
08001322	F0 D0			beq 0x08001306 ; REFS: CONDITIONAL_JUMP->08001306
08001324	7B 68			ldr r3,[r7,#0x4] ; REFS: READ->Stack[-0x1c]
08001326	9B 68			ldr r3,[r3,#0x8] 
08001328	01 2B			cmp r3,#0x1 
0800132a	06 D1			bne 0x0800133a ; REFS: CONDITIONAL_JUMP->0800133a
0800132c	66 4B			ldr r3,[0x080014c8] ; REFS: READ->080014c8
0800132e	1B 6F			ldr r3,[r3,#0x70] ; REFS: READ->40023870
08001330	65 4A			ldr r2,[0x080014c8] ; REFS: READ->080014c8, PARAM->40023800
08001332	43 F0 01 03			orr r3,r3,#0x1 
08001336	13 67			str r3,[r2,#0x70] ; REFS: WRITE->40023870
08001338	1C E0			b 0x08001374 ; REFS: UNCONDITIONAL_JUMP->08001374
0800133a	7B 68			ldr r3,[r7,#0x4] ; REFS: READ->Stack[-0x1c]
0800133c	9B 68			ldr r3,[r3,#0x8] 
0800133e	05 2B			cmp r3,#0x5 
08001340	0C D1			bne 0x0800135c ; REFS: CONDITIONAL_JUMP->0800135c
08001342	61 4B			ldr r3,[0x080014c8] ; REFS: READ->080014c8
08001344	1B 6F			ldr r3,[r3,#0x70] ; REFS: READ->40023870
08001346	60 4A			ldr r2,[0x080014c8] ; REFS: READ->080014c8
08001348	43 F0 04 03			orr r3,r3,#0x4 
0800134c	13 67			str r3,[r2,#0x70] ; REFS: WRITE->40023870
0800134e	5E 4B			ldr r3,[0x080014c8] ; REFS: READ->080014c8
08001350	1B 6F			ldr r3,[r3,#0x70] ; REFS: READ->40023870
08001352	5D 4A			ldr r2,[0x080014c8] ; REFS: READ->080014c8, PARAM->40023800
08001354	43 F0 01 03			orr r3,r3,#0x1 
08001358	13 67			str r3,[r2,#0x70] ; REFS: WRITE->40023870
0800135a	0B E0			b 0x08001374 ; REFS: UNCONDITIONAL_JUMP->08001374
0800135c	5A 4B			ldr r3,[0x080014c8] ; REFS: READ->080014c8
0800135e	1B 6F			ldr r3,[r3,#0x70] ; REFS: READ->40023870
08001360	59 4A			ldr r2,[0x080014c8] ; REFS: READ->080014c8
08001362	23 F0 01 03			bic r3,r3,#0x1 
08001366	13 67			str r3,[r2,#0x70] ; REFS: WRITE->40023870
08001368	57 4B			ldr r3,[0x080014c8] ; REFS: READ->080014c8
0800136a	1B 6F			ldr r3,[r3,#0x70] ; REFS: READ->40023870
0800136c	56 4A			ldr r2,[0x080014c8] ; REFS: READ->080014c8, PARAM->40023800
0800136e	23 F0 04 03			bic r3,r3,#0x4 
08001372	13 67			str r3,[r2,#0x70] ; REFS: WRITE->40023870
08001374	7B 68			ldr r3,[r7,#0x4] ; REFS: READ->Stack[-0x1c]
08001376	9B 68			ldr r3,[r3,#0x8] 
08001378	00 2B			cmp r3,#0x0 
0800137a	15 D0			beq 0x080013a8 ; REFS: CONDITIONAL_JUMP->080013a8
0800137c	FF F7 CA FB			bl 0x08000b14 ; REFS: UNCONDITIONAL_CALL->08000b14
08001380	38 61			str r0,[r7,#0x10] ; REFS: WRITE->Stack[-0x10]
08001382	0A E0			b 0x0800139a ; REFS: UNCONDITIONAL_JUMP->0800139a
08001384	FF F7 C6 FB			bl 0x08000b14 ; REFS: UNCONDITIONAL_CALL->08000b14
08001388	02 46			mov r2,r0 
0800138a	3B 69			ldr r3,[r7,#0x10] ; REFS: READ->Stack[-0x10]
0800138c	D3 1A			subs r3,r2,r3 
0800138e	41 F2 88 32			movw r2,#0x1388 
08001392	93 42			cmp r3,r2 
08001394	01 D9			bls 0x0800139a ; REFS: CONDITIONAL_JUMP->0800139a
08001396	03 23			movs r3,#0x3 
08001398	D7 E0			b 0x0800154a ; REFS: UNCONDITIONAL_JUMP->0800154a
0800139a	4B 4B			ldr r3,[0x080014c8] ; REFS: READ->080014c8
0800139c	1B 6F			ldr r3,[r3,#0x70] ; REFS: READ->40023870
0800139e	03 F0 02 03			and r3,r3,#0x2 
080013a2	00 2B			cmp r3,#0x0 
080013a4	EE D0			beq 0x08001384 ; REFS: CONDITIONAL_JUMP->08001384
080013a6	14 E0			b 0x080013d2 ; REFS: UNCONDITIONAL_JUMP->080013d2
080013a8	FF F7 B4 FB			bl 0x08000b14 ; REFS: UNCONDITIONAL_CALL->08000b14
080013ac	38 61			str r0,[r7,#0x10] ; REFS: WRITE->Stack[-0x10]
080013ae	0A E0			b 0x080013c6 ; REFS: UNCONDITIONAL_JUMP->080013c6
080013b0	FF F7 B0 FB			bl 0x08000b14 ; REFS: UNCONDITIONAL_CALL->08000b14
080013b4	02 46			mov r2,r0 
080013b6	3B 69			ldr r3,[r7,#0x10] ; REFS: READ->Stack[-0x10]
080013b8	D3 1A			subs r3,r2,r3 
080013ba	41 F2 88 32			movw r2,#0x1388 
080013be	93 42			cmp r3,r2 
080013c0	01 D9			bls 0x080013c6 ; REFS: CONDITIONAL_JUMP->080013c6
080013c2	03 23			movs r3,#0x3 
080013c4	C1 E0			b 0x0800154a ; REFS: UNCONDITIONAL_JUMP->0800154a
080013c6	40 4B			ldr r3,[0x080014c8] ; REFS: READ->080014c8
080013c8	1B 6F			ldr r3,[r3,#0x70] ; REFS: READ->40023870
080013ca	03 F0 02 03			and r3,r3,#0x2 
080013ce	00 2B			cmp r3,#0x0 
080013d0	EE D1			bne 0x080013b0 ; REFS: CONDITIONAL_JUMP->080013b0
080013d2	FB 7D			ldrb r3,[r7,#0x17] ; REFS: READ->Stack[-0x9]
080013d4	01 2B			cmp r3,#0x1 
080013d6	05 D1			bne 0x080013e4 ; REFS: CONDITIONAL_JUMP->080013e4
080013d8	3B 4B			ldr r3,[0x080014c8] ; REFS: READ->080014c8
080013da	1B 6C			ldr r3,[r3,#0x40] ; REFS: READ->40023840
080013dc	3A 4A			ldr r2,[0x080014c8] ; REFS: READ->080014c8
080013de	23 F0 80 53			bic r3,r3,#0x10000000 
080013e2	13 64			str r3,[r2,#0x40] ; REFS: WRITE->40023840
080013e4	7B 68			ldr r3,[r7,#0x4] ; REFS: READ->Stack[-0x1c]
080013e6	9B 69			ldr r3,[r3,#0x18] 
080013e8	00 2B			cmp r3,#0x0 
080013ea	00 F0 AD 80			beq.w 0x08001548 ; REFS: CONDITIONAL_JUMP->08001548
080013ee	36 4B			ldr r3,[0x080014c8] ; REFS: READ->080014c8
080013f0	9B 68			ldr r3,[r3,#0x8] ; REFS: READ->40023808
080013f2	03 F0 0C 03			and r3,r3,#0xc 
080013f6	08 2B			cmp r3,#0x8 
080013f8	60 D0			beq 0x080014bc ; REFS: CONDITIONAL_JUMP->080014bc
080013fa	7B 68			ldr r3,[r7,#0x4] ; REFS: READ->Stack[-0x1c]
080013fc	9B 69			ldr r3,[r3,#0x18] 
080013fe	02 2B			cmp r3,#0x2 
08001400	45 D1			bne 0x0800148e ; REFS: CONDITIONAL_JUMP->0800148e
08001402	33 4B			ldr r3,[0x080014d0] ; REFS: READ->080014d0, PARAM->42470060
08001404	00 22			movs r2,#0x0 
08001406	1A 60			str r2,[r3,#0x0] ; REFS: WRITE->42470060
08001408	FF F7 84 FB			bl 0x08000b14 ; REFS: UNCONDITIONAL_CALL->08000b14
0800140c	38 61			str r0,[r7,#0x10] ; REFS: WRITE->Stack[-0x10]
0800140e	08 E0			b 0x08001422 ; REFS: UNCONDITIONAL_JUMP->08001422
08001410	FF F7 80 FB			bl 0x08000b14 ; REFS: UNCONDITIONAL_CALL->08000b14
08001414	02 46			mov r2,r0 
08001416	3B 69			ldr r3,[r7,#0x10] ; REFS: READ->Stack[-0x10]
08001418	D3 1A			subs r3,r2,r3 
0800141a	02 2B			cmp r3,#0x2 
0800141c	01 D9			bls 0x08001422 ; REFS: CONDITIONAL_JUMP->08001422
0800141e	03 23			movs r3,#0x3 
08001420	93 E0			b 0x0800154a ; REFS: UNCONDITIONAL_JUMP->0800154a
08001422	29 4B			ldr r3,[0x080014c8] ; REFS: READ->080014c8
08001424	1B 68			ldr r3,[r3,#0x0] ; REFS: READ->40023800
08001426	03 F0 00 73			and r3,r3,#0x2000000 
0800142a	00 2B			cmp r3,#0x0 
0800142c	F0 D1			bne 0x08001410 ; REFS: CONDITIONAL_JUMP->08001410
0800142e	7B 68			ldr r3,[r7,#0x4] ; REFS: READ->Stack[-0x1c]
08001430	DA 69			ldr r2,[r3,#0x1c] 
08001432	7B 68			ldr r3,[r7,#0x4] ; REFS: READ->Stack[-0x1c]
08001434	1B 6A			ldr r3,[r3,#0x20] 
08001436	1A 43			orrs r2,r3 
08001438	7B 68			ldr r3,[r7,#0x4] ; REFS: READ->Stack[-0x1c]
0800143a	5B 6A			ldr r3,[r3,#0x24] 
0800143c	9B 01			lsls r3,r3,#0x6 
0800143e	1A 43			orrs r2,r3 
08001440	7B 68			ldr r3,[r7,#0x4] ; REFS: READ->Stack[-0x1c]
08001442	9B 6A			ldr r3,[r3,#0x28] 
08001444	5B 08			lsrs r3,r3,#0x1 
08001446	01 3B			subs r3,#0x1 
08001448	1B 04			lsls r3,r3,#0x10 
0800144a	1A 43			orrs r2,r3 
0800144c	7B 68			ldr r3,[r7,#0x4] ; REFS: READ->Stack[-0x1c]
0800144e	DB 6A			ldr r3,[r3,#0x2c] 
08001450	1B 06			lsls r3,r3,#0x18 
08001452	1A 43			orrs r2,r3 
08001454	7B 68			ldr r3,[r7,#0x4] ; REFS: READ->Stack[-0x1c]
08001456	1B 6B			ldr r3,[r3,#0x30] 
08001458	1B 07			lsls r3,r3,#0x1c 
0800145a	1B 49			ldr r1,[0x080014c8] ; REFS: READ->080014c8, PARAM->40023800
0800145c	13 43			orrs r3,r2 
0800145e	4B 60			str r3,[r1,#0x4] ; REFS: WRITE->40023804
08001460	1B 4B			ldr r3,[0x080014d0] ; REFS: READ->080014d0, PARAM->42470060
08001462	01 22			movs r2,#0x1 
08001464	1A 60			str r2,[r3,#0x0] ; REFS: WRITE->42470060
08001466	FF F7 55 FB			bl 0x08000b14 ; REFS: UNCONDITIONAL_CALL->08000b14
0800146a	38 61			str r0,[r7,#0x10] ; REFS: WRITE->Stack[-0x10]
0800146c	08 E0			b 0x08001480 ; REFS: UNCONDITIONAL_JUMP->08001480
0800146e	FF F7 51 FB			bl 0x08000b14 ; REFS: UNCONDITIONAL_CALL->08000b14
08001472	02 46			mov r2,r0 
08001474	3B 69			ldr r3,[r7,#0x10] ; REFS: READ->Stack[-0x10]
08001476	D3 1A			subs r3,r2,r3 
08001478	02 2B			cmp r3,#0x2 
0800147a	01 D9			bls 0x08001480 ; REFS: CONDITIONAL_JUMP->08001480
0800147c	03 23			movs r3,#0x3 
0800147e	64 E0			b 0x0800154a ; REFS: UNCONDITIONAL_JUMP->0800154a
08001480	11 4B			ldr r3,[0x080014c8] ; REFS: READ->080014c8
08001482	1B 68			ldr r3,[r3,#0x0] ; REFS: READ->40023800
08001484	03 F0 00 73			and r3,r3,#0x2000000 
08001488	00 2B			cmp r3,#0x0 
0800148a	F0 D0			beq 0x0800146e ; REFS: CONDITIONAL_JUMP->0800146e
0800148c	5C E0			b 0x08001548 ; REFS: UNCONDITIONAL_JUMP->08001548
0800148e	10 4B			ldr r3,[0x080014d0] ; REFS: READ->080014d0, PARAM->42470060
08001490	00 22			movs r2,#0x0 
08001492	1A 60			str r2,[r3,#0x0] ; REFS: WRITE->42470060
08001494	FF F7 3E FB			bl 0x08000b14 ; REFS: UNCONDITIONAL_CALL->08000b14
08001498	38 61			str r0,[r7,#0x10] ; REFS: WRITE->Stack[-0x10]
0800149a	08 E0			b 0x080014ae ; REFS: UNCONDITIONAL_JUMP->080014ae
0800149c	FF F7 3A FB			bl 0x08000b14 ; REFS: UNCONDITIONAL_CALL->08000b14
080014a0	02 46			mov r2,r0 
080014a2	3B 69			ldr r3,[r7,#0x10] ; REFS: READ->Stack[-0x10]
080014a4	D3 1A			subs r3,r2,r3 
080014a6	02 2B			cmp r3,#0x2 
080014a8	01 D9			bls 0x080014ae ; REFS: CONDITIONAL_JUMP->080014ae
080014aa	03 23			movs r3,#0x3 
080014ac	4D E0			b 0x0800154a ; REFS: UNCONDITIONAL_JUMP->0800154a
080014ae	06 4B			ldr r3,[0x080014c8] ; REFS: READ->080014c8
080014b0	1B 68			ldr r3,[r3,#0x0] ; REFS: READ->40023800
080014b2	03 F0 00 73			and r3,r3,#0x2000000 
080014b6	00 2B			cmp r3,#0x0 
080014b8	F0 D1			bne 0x0800149c ; REFS: CONDITIONAL_JUMP->0800149c
080014ba	45 E0			b 0x08001548 ; REFS: UNCONDITIONAL_JUMP->08001548
080014bc	7B 68			ldr r3,[r7,#0x4] ; REFS: READ->Stack[-0x1c]
080014be	9B 69			ldr r3,[r3,#0x18] 
080014c0	01 2B			cmp r3,#0x1 
080014c2	07 D1			bne 0x080014d4 ; REFS: CONDITIONAL_JUMP->080014d4
080014c4	01 23			movs r3,#0x1 
080014c6	40 E0			b 0x0800154a ; REFS: UNCONDITIONAL_JUMP->0800154a
080014c8	00 38 02 40		undefined4	undefined4 40023800h 
080014cc	00 70 00 40		undefined4	undefined4 40007000h 
080014d0	60 00 47 42		undefined4	undefined4 42470060h 
080014d4	1F 4B			ldr r3,[0x08001554] ; REFS: READ->08001554
080014d6	5B 68			ldr r3,[r3,#0x4] ; REFS: READ->40023804
080014d8	FB 60			str r3,[r7,#0xc] ; REFS: WRITE->Stack[-0x14]
080014da	7B 68			ldr r3,[r7,#0x4] ; REFS: READ->Stack[-0x1c]
080014dc	9B 69			ldr r3,[r3,#0x18] 
080014de	01 2B			cmp r3,#0x1 
080014e0	30 D0			beq 0x08001544 ; REFS: CONDITIONAL_JUMP->08001544
080014e2	FB 68			ldr r3,[r7,#0xc] ; REFS: READ->Stack[-0x14]
080014e4	03 F4 80 02			and r2,r3,#0x400000 
080014e8	7B 68			ldr r3,[r7,#0x4] ; REFS: READ->Stack[-0x1c]
080014ea	DB 69			ldr r3,[r3,#0x1c] 
080014ec	9A 42			cmp r2,r3 
080014ee	29 D1			bne 0x08001544 ; REFS: CONDITIONAL_JUMP->08001544
080014f0	FB 68			ldr r3,[r7,#0xc] ; REFS: READ->Stack[-0x14]
080014f2	03 F0 3F 02			and r2,r3,#0x3f 
080014f6	7B 68			ldr r3,[r7,#0x4] ; REFS: READ->Stack[-0x1c]
080014f8	1B 6A			ldr r3,[r3,#0x20] 
080014fa	9A 42			cmp r2,r3 
080014fc	22 D1			bne 0x08001544 ; REFS: CONDITIONAL_JUMP->08001544
080014fe	FA 68			ldr r2,[r7,#0xc] ; REFS: READ->Stack[-0x14]
08001500	47 F6 C0 73			movw r3,#0x7fc0 
08001504	13 40			ands r3,r2 
08001506	7A 68			ldr r2,[r7,#0x4] ; REFS: READ->Stack[-0x1c]
08001508	52 6A			ldr r2,[r2,#0x24] 
0800150a	92 01			lsls r2,r2,#0x6 
0800150c	93 42			cmp r3,r2 
0800150e	19 D1			bne 0x08001544 ; REFS: CONDITIONAL_JUMP->08001544
08001510	FB 68			ldr r3,[r7,#0xc] ; REFS: READ->Stack[-0x14]
08001512	03 F4 40 32			and r2,r3,#0x30000 
08001516	7B 68			ldr r3,[r7,#0x4] ; REFS: READ->Stack[-0x1c]
08001518	9B 6A			ldr r3,[r3,#0x28] 
0800151a	5B 08			lsrs r3,r3,#0x1 
0800151c	01 3B			subs r3,#0x1 
0800151e	1B 04			lsls r3,r3,#0x10 
08001520	9A 42			cmp r2,r3 
08001522	0F D1			bne 0x08001544 ; REFS: CONDITIONAL_JUMP->08001544
08001524	FB 68			ldr r3,[r7,#0xc] ; REFS: READ->Stack[-0x14]
08001526	03 F0 70 62			and r2,r3,#0xf000000 
0800152a	7B 68			ldr r3,[r7,#0x4] ; REFS: READ->Stack[-0x1c]
0800152c	DB 6A			ldr r3,[r3,#0x2c] 
0800152e	1B 06			lsls r3,r3,#0x18 
08001530	9A 42			cmp r2,r3 
08001532	07 D1			bne 0x08001544 ; REFS: CONDITIONAL_JUMP->08001544
08001534	FB 68			ldr r3,[r7,#0xc] ; REFS: READ->Stack[-0x14]
08001536	03 F0 E0 42			and r2,r3,#0x70000000 
0800153a	7B 68			ldr r3,[r7,#0x4] ; REFS: READ->Stack[-0x1c]
0800153c	1B 6B			ldr r3,[r3,#0x30] 
0800153e	1B 07			lsls r3,r3,#0x1c 
08001540	9A 42			cmp r2,r3 
08001542	01 D0			beq 0x08001548 ; REFS: CONDITIONAL_JUMP->08001548
08001544	01 23			movs r3,#0x1 
08001546	00 E0			b 0x0800154a ; REFS: UNCONDITIONAL_JUMP->0800154a
08001548	00 23			movs r3,#0x0 
0800154a	18 46			mov r0,r3 
0800154c	18 37			adds r7,#0x18 
0800154e	BD 46			mov sp,r7 
08001550	80 BD			pop {r7,pc} 
08001552	00		undefined	?? 00h 
08001553	BF		undefined	?? BFh 
08001554	00 38 02 40		undefined4	undefined4 40023800h 
08001558	10 B5	FUN_08001558		push {r4,lr} 
0800155a	01 39			subs r1,#0x1 
0800155c	02 44			add r2,r0 
0800155e	90 42			cmp r0,r2 
08001560	01 D1			bne 0x08001566 ; REFS: CONDITIONAL_JUMP->08001566
08001562	00 20			movs r0,#0x0 
08001564	05 E0			b 0x08001572 ; REFS: UNCONDITIONAL_JUMP->08001572
08001566	03 78			ldrb r3,[r0,#0x0] 
08001568	11 F8 01 4F			ldrb.w r4,[r1,#0x1]! 
0800156c	A3 42			cmp r3,r4 
0800156e	01 D0			beq 0x08001574 ; REFS: CONDITIONAL_JUMP->08001574
08001570	18 1B			subs r0,r3,r4 
08001572	10 BD			pop {r4,pc} 
08001574	01 30			adds r0,#0x1 
08001576	F2 E7			b 0x0800155e ; REFS: UNCONDITIONAL_JUMP->0800155e
08001578	02 44	FUN_08001578		add r2,r0 
0800157a	03 46			mov r3,r0 
0800157c	93 42			cmp r3,r2 
0800157e	00 D1			bne 0x08001582 ; REFS: CONDITIONAL_JUMP->08001582
08001580	70 47			bx lr 
08001582	03 F8 01 1B			strb.w r1,[r3],#0x1 
08001586	F9 E7			b 0x0800157c ; REFS: UNCONDITIONAL_JUMP->0800157c
08001588	70 B5	FUN_08001588		push {r4,r5,r6,lr} 
0800158a	0D 4D			ldr r5,[0x080015c0] ; REFS: READ->080015c0
0800158c	0D 4C			ldr r4,[0x080015c4] ; REFS: READ->080015c4
0800158e	64 1B			subs r4,r4,r5 
08001590	A4 10			asrs r4,r4,#0x2 
08001592	00 26			movs r6,#0x0 
08001594	A6 42			cmp r6,r4 
08001596	09 D1			bne 0x080015ac ; REFS: CONDITIONAL_JUMP->080015ac
08001598	0B 4D			ldr r5,[0x080015c8] ; REFS: READ->080015c8
0800159a	0C 4C			ldr r4,[0x080015cc] ; REFS: READ->080015cc
0800159c	00 F0 18 F8			bl 0x080015d0 ; REFS: UNCONDITIONAL_CALL->080015d0
080015a0	64 1B			subs r4,r4,r5 
080015a2	A4 10			asrs r4,r4,#0x2 
080015a4	00 26			movs r6,#0x0 
080015a6	A6 42			cmp r6,r4 
080015a8	05 D1			bne 0x080015b6 ; REFS: CONDITIONAL_JUMP->080015b6
080015aa	70 BD			pop {r4,r5,r6,pc} 
080015ac	55 F8 04 3B			ldr.w r3,[r5],#0x4 ; REFS: READ->08001620, PARAM->080001fd
080015b0	98 47			blx r3 ; REFS: COMPUTED_CALL->080001fc
080015b2	01 36			adds r6,#0x1 
080015b4	EE E7			b 0x08001594 ; REFS: UNCONDITIONAL_JUMP->08001594
080015b6	55 F8 04 3B			ldr.w r3,[r5],#0x4 ; REFS: READ->08001620, PARAM->080001fd
080015ba	98 47			blx r3 ; REFS: COMPUTED_CALL->080001fc
080015bc	01 36			adds r6,#0x1 
080015be	F2 E7			b 0x080015a6 ; REFS: UNCONDITIONAL_JUMP->080015a6
080015c0	20 16 00 08		undefined4	undefined4 08001620h 
080015c4	20 16 00 08		undefined4	undefined4 08001620h 
080015c8	20 16 00 08		undefined4	undefined4 08001620h 
080015cc	24 16 00 08		undefined4	undefined4 08001624h 
080015d0	F8 B5	FUN_080015d0		push {r3,r4,r5,r6,r7,lr} 
080015d2	00 BF			nop 
080015d4	F8 BC			pop {r3,r4,r5,r6,r7} 
080015d6	08 BC			pop {r3} 
080015d8	9E 46			mov lr,r3 
080015da	70 47			bx lr 
080015dc	F8 B5	FUN_080015dc		push {r3,r4,r5,r6,r7,lr} 
080015de	00 BF			nop 
080015e0	F8 BC			pop {r3,r4,r5,r6,r7} 
080015e2	08 BC			pop {r3} 
080015e4	9E 46			mov lr,r3 
080015e6	70 47			bx lr 
080015e8	3A		undefined	?? 3Ah    : 
080015e9	7F		undefined	?? 7Fh     
080015ea	1C		undefined	?? 1Ch 
080015eb	92		undefined	?? 92h 
080015ec	B6		undefined	?? B6h 
080015ed	E4		undefined	?? E4h 
080015ee	05		undefined	?? 05h 
080015ef	D8		undefined	?? D8h 
080015f0	8F		undefined	?? 8Fh 
080015f1	2A		undefined	?? 2Ah    * 
080015f2	7C		undefined	?? 7Ch    | 
080015f3	11		undefined	?? 11h 
080015f4	4D		undefined	?? 4Dh    M 
080015f5	9E		undefined	?? 9Eh 
080015f6	6B		undefined	?? 6Bh    k 
080015f7	3F		undefined	?? 3Fh    ? 
080015f8	46		undefined	?? 46h    F 
080015f9	1F		undefined	?? 1Fh 
080015fa	FC		undefined	?? FCh 
080015fb	2F		undefined	?? 2Fh    / 
080015fc	0F		undefined	?? 0Fh 
080015fd	C9		undefined	?? C9h 
080015fe	D8		undefined	?? D8h 
080015ff	73		undefined	?? 73h    s 
08001600	0E		undefined	?? 0Eh 
08001601	39		undefined	?? 39h    9 
08001602	13		undefined	?? 13h 
08001603	CB		undefined	?? CBh 
08001604	C2		undefined	?? C2h 
08001605	A5		undefined	?? A5h 
08001606	97		undefined	?? 97h 
08001607	E0		undefined	?? E0h 
08001608	00		undefined	?? 00h 
08001609	00		undefined	?? 00h 
0800160a	00		undefined	?? 00h 
0800160b	00		undefined	?? 00h 
0800160c	00		undefined	?? 00h 
0800160d	00		undefined	?? 00h 
0800160e	00		undefined	?? 00h 
0800160f	00		undefined	?? 00h 
08001610	01		undefined	?? 01h 
08001611	02		undefined	?? 02h 
08001612	03		undefined	?? 03h 
08001613	04		undefined	?? 04h 
08001614	06		undefined	?? 06h 
08001615	07		undefined	?? 07h 
08001616	08		undefined	?? 08h 
08001617	09		undefined	?? 09h 
08001618	30		undefined	?? 30h    0 
08001619	EC		undefined	?? ECh 
0800161a	FF		undefined	?? FFh 
0800161b	7F		undefined	?? 7Fh     
0800161c	01		undefined	?? 01h 
0800161d	00		undefined	?? 00h 
0800161e	00		undefined	?? 00h 
0800161f	00		undefined	?? 00h 
08001620	FD 01 00 08		undefined *	addr 080001fd ; REFS: DATA->080001fd
08001624	D9 01 00 08		undefined *	addr 080001d9 ; REFS: DATA->080001d9
08001628	00 24 F4 00		undefined4	undefined4 00F42400h 
0800162c	10		undefined	?? 10h 
0800162d	00		undefined	?? 00h 
0800162e	00		undefined	?? 00h 
0800162f	00		undefined	?? 00h 
08001630	01		undefined	?? 01h 
08001631	00		undefined	?? 00h 
08001632	00		undefined	?? 00h 
08001633	00		undefined	?? 00h 
